
lab3.elf:     file format elf32-littlearm

Sections:
Idx Name          Size      VMA       LMA       File off  Algn
  0 .isr_vector   0000010c  08000000  08000000  00010000  2**0
                  CONTENTS, ALLOC, LOAD, READONLY, DATA
  1 .text         00002f28  0800010c  0800010c  0001010c  2**2
                  CONTENTS, ALLOC, LOAD, READONLY, CODE
  2 .rodata       00000028  08003034  08003034  00013034  2**2
                  CONTENTS, ALLOC, LOAD, READONLY, DATA
  3 .ARM.extab    00000000  0800305c  0800305c  00020894  2**0
                  CONTENTS
  4 .ARM          00000000  0800305c  0800305c  00020894  2**0
                  CONTENTS
  5 .preinit_array 00000000  0800305c  0800305c  00020894  2**0
                  CONTENTS, ALLOC, LOAD, DATA
  6 .init_array   00000008  0800305c  0800305c  0001305c  2**2
                  CONTENTS, ALLOC, LOAD, DATA
  7 .fini_array   00000004  08003064  08003064  00013064  2**2
                  CONTENTS, ALLOC, LOAD, DATA
  8 .data         00000894  20000000  08003068  00020000  2**3
                  CONTENTS, ALLOC, LOAD, DATA
  9 .bss          000000e4  20000894  080038fc  00020894  2**2
                  ALLOC
 10 ._user_heap_stack 00000600  20000978  080038fc  00020978  2**0
                  ALLOC
 11 .ARM.attributes 00000029  00000000  00000000  00020894  2**0
                  CONTENTS, READONLY
 12 .debug_info   0000dc94  00000000  00000000  000208bd  2**0
                  CONTENTS, READONLY, DEBUGGING, OCTETS
 13 .debug_abbrev 0000260f  00000000  00000000  0002e551  2**0
                  CONTENTS, READONLY, DEBUGGING, OCTETS
 14 .debug_aranges 00000b30  00000000  00000000  00030b60  2**3
                  CONTENTS, READONLY, DEBUGGING, OCTETS
 15 .debug_ranges 00000a00  00000000  00000000  00031690  2**3
                  CONTENTS, READONLY, DEBUGGING, OCTETS
 16 .debug_macro  00017f16  00000000  00000000  00032090  2**0
                  CONTENTS, READONLY, DEBUGGING, OCTETS
 17 .debug_line   0000d05a  00000000  00000000  00049fa6  2**0
                  CONTENTS, READONLY, DEBUGGING, OCTETS
 18 .debug_str    0008581b  00000000  00000000  00057000  2**0
                  CONTENTS, READONLY, DEBUGGING, OCTETS
 19 .comment      00000053  00000000  00000000  000dc81b  2**0
                  CONTENTS, READONLY
 20 .debug_frame  00002ed8  00000000  00000000  000dc870  2**2
                  CONTENTS, READONLY, DEBUGGING, OCTETS

Disassembly of section .text:

0800010c <__do_global_dtors_aux>:
 800010c:	b510      	push	{r4, lr}
 800010e:	4c05      	ldr	r4, [pc, #20]	; (8000124 <__do_global_dtors_aux+0x18>)
 8000110:	7823      	ldrb	r3, [r4, #0]
 8000112:	b933      	cbnz	r3, 8000122 <__do_global_dtors_aux+0x16>
 8000114:	4b04      	ldr	r3, [pc, #16]	; (8000128 <__do_global_dtors_aux+0x1c>)
 8000116:	b113      	cbz	r3, 800011e <__do_global_dtors_aux+0x12>
 8000118:	4804      	ldr	r0, [pc, #16]	; (800012c <__do_global_dtors_aux+0x20>)
 800011a:	f3af 8000 	nop.w
 800011e:	2301      	movs	r3, #1
 8000120:	7023      	strb	r3, [r4, #0]
 8000122:	bd10      	pop	{r4, pc}
 8000124:	20000894 	.word	0x20000894
 8000128:	00000000 	.word	0x00000000
 800012c:	0800301c 	.word	0x0800301c

08000130 <frame_dummy>:
 8000130:	b508      	push	{r3, lr}
 8000132:	4b03      	ldr	r3, [pc, #12]	; (8000140 <frame_dummy+0x10>)
 8000134:	b11b      	cbz	r3, 800013e <frame_dummy+0xe>
 8000136:	4903      	ldr	r1, [pc, #12]	; (8000144 <frame_dummy+0x14>)
 8000138:	4803      	ldr	r0, [pc, #12]	; (8000148 <frame_dummy+0x18>)
 800013a:	f3af 8000 	nop.w
 800013e:	bd08      	pop	{r3, pc}
 8000140:	00000000 	.word	0x00000000
 8000144:	20000898 	.word	0x20000898
 8000148:	0800301c 	.word	0x0800301c

0800014c <getKeyinput1>:
#include "button.h"


int buttonFlag[3] = {0,0,0};
uint8_t count = 0;
void getKeyinput1(){
 800014c:	b580      	push	{r7, lr}
 800014e:	af00      	add	r7, sp, #0
	if (count > 0 ) count--;
 8000150:	4b1f      	ldr	r3, [pc, #124]	; (80001d0 <getKeyinput1+0x84>)
 8000152:	781b      	ldrb	r3, [r3, #0]
 8000154:	2b00      	cmp	r3, #0
 8000156:	d005      	beq.n	8000164 <getKeyinput1+0x18>
 8000158:	4b1d      	ldr	r3, [pc, #116]	; (80001d0 <getKeyinput1+0x84>)
 800015a:	781b      	ldrb	r3, [r3, #0]
 800015c:	3b01      	subs	r3, #1
 800015e:	b2da      	uxtb	r2, r3
 8000160:	4b1b      	ldr	r3, [pc, #108]	; (80001d0 <getKeyinput1+0x84>)
 8000162:	701a      	strb	r2, [r3, #0]
	//-----PROCESS BUTTON 1------------
	if((count == 0) && (HAL_GPIO_ReadPin(BUTTON1_GPIO_Port, BUTTON1_Pin) == 0)){
 8000164:	4b1a      	ldr	r3, [pc, #104]	; (80001d0 <getKeyinput1+0x84>)
 8000166:	781b      	ldrb	r3, [r3, #0]
 8000168:	2b00      	cmp	r3, #0
 800016a:	d10c      	bne.n	8000186 <getKeyinput1+0x3a>
 800016c:	2101      	movs	r1, #1
 800016e:	4819      	ldr	r0, [pc, #100]	; (80001d4 <getKeyinput1+0x88>)
 8000170:	f001 fb2c 	bl	80017cc <HAL_GPIO_ReadPin>
 8000174:	4603      	mov	r3, r0
 8000176:	2b00      	cmp	r3, #0
 8000178:	d105      	bne.n	8000186 <getKeyinput1+0x3a>
		buttonFlag[0] = 1;
 800017a:	4b17      	ldr	r3, [pc, #92]	; (80001d8 <getKeyinput1+0x8c>)
 800017c:	2201      	movs	r2, #1
 800017e:	601a      	str	r2, [r3, #0]
		count = 10;
 8000180:	4b13      	ldr	r3, [pc, #76]	; (80001d0 <getKeyinput1+0x84>)
 8000182:	220a      	movs	r2, #10
 8000184:	701a      	strb	r2, [r3, #0]
	}
	// ----PROCESS BUTTON 2-----------
	if((count == 0) && (HAL_GPIO_ReadPin(BUTTON2_GPIO_Port, BUTTON2_Pin) == 0)){
 8000186:	4b12      	ldr	r3, [pc, #72]	; (80001d0 <getKeyinput1+0x84>)
 8000188:	781b      	ldrb	r3, [r3, #0]
 800018a:	2b00      	cmp	r3, #0
 800018c:	d10c      	bne.n	80001a8 <getKeyinput1+0x5c>
 800018e:	2102      	movs	r1, #2
 8000190:	4810      	ldr	r0, [pc, #64]	; (80001d4 <getKeyinput1+0x88>)
 8000192:	f001 fb1b 	bl	80017cc <HAL_GPIO_ReadPin>
 8000196:	4603      	mov	r3, r0
 8000198:	2b00      	cmp	r3, #0
 800019a:	d105      	bne.n	80001a8 <getKeyinput1+0x5c>
		buttonFlag[1] = 1;
 800019c:	4b0e      	ldr	r3, [pc, #56]	; (80001d8 <getKeyinput1+0x8c>)
 800019e:	2201      	movs	r2, #1
 80001a0:	605a      	str	r2, [r3, #4]
		count = 10;
 80001a2:	4b0b      	ldr	r3, [pc, #44]	; (80001d0 <getKeyinput1+0x84>)
 80001a4:	220a      	movs	r2, #10
 80001a6:	701a      	strb	r2, [r3, #0]
	}
	// ----- PROCESS BUTTON 3 -----------
	if((count == 0) && (HAL_GPIO_ReadPin(BUTTON3_GPIO_Port, BUTTON3_Pin) == 0)){
 80001a8:	4b09      	ldr	r3, [pc, #36]	; (80001d0 <getKeyinput1+0x84>)
 80001aa:	781b      	ldrb	r3, [r3, #0]
 80001ac:	2b00      	cmp	r3, #0
 80001ae:	d10c      	bne.n	80001ca <getKeyinput1+0x7e>
 80001b0:	2104      	movs	r1, #4
 80001b2:	4808      	ldr	r0, [pc, #32]	; (80001d4 <getKeyinput1+0x88>)
 80001b4:	f001 fb0a 	bl	80017cc <HAL_GPIO_ReadPin>
 80001b8:	4603      	mov	r3, r0
 80001ba:	2b00      	cmp	r3, #0
 80001bc:	d105      	bne.n	80001ca <getKeyinput1+0x7e>
		buttonFlag[2] = 1;
 80001be:	4b06      	ldr	r3, [pc, #24]	; (80001d8 <getKeyinput1+0x8c>)
 80001c0:	2201      	movs	r2, #1
 80001c2:	609a      	str	r2, [r3, #8]
		count = 10;
 80001c4:	4b02      	ldr	r3, [pc, #8]	; (80001d0 <getKeyinput1+0x84>)
 80001c6:	220a      	movs	r2, #10
 80001c8:	701a      	strb	r2, [r3, #0]
	}

}
 80001ca:	bf00      	nop
 80001cc:	bd80      	pop	{r7, pc}
 80001ce:	bf00      	nop
 80001d0:	200008bc 	.word	0x200008bc
 80001d4:	40010c00 	.word	0x40010c00
 80001d8:	200008b0 	.word	0x200008b0

080001dc <isButtonPress>:
int isButtonPress(int i){
 80001dc:	b480      	push	{r7}
 80001de:	b083      	sub	sp, #12
 80001e0:	af00      	add	r7, sp, #0
 80001e2:	6078      	str	r0, [r7, #4]
	if(buttonFlag[i] == 1){
 80001e4:	4a09      	ldr	r2, [pc, #36]	; (800020c <isButtonPress+0x30>)
 80001e6:	687b      	ldr	r3, [r7, #4]
 80001e8:	f852 3023 	ldr.w	r3, [r2, r3, lsl #2]
 80001ec:	2b01      	cmp	r3, #1
 80001ee:	d106      	bne.n	80001fe <isButtonPress+0x22>
		buttonFlag[i] = 0;
 80001f0:	4a06      	ldr	r2, [pc, #24]	; (800020c <isButtonPress+0x30>)
 80001f2:	687b      	ldr	r3, [r7, #4]
 80001f4:	2100      	movs	r1, #0
 80001f6:	f842 1023 	str.w	r1, [r2, r3, lsl #2]
		return 1;
 80001fa:	2301      	movs	r3, #1
 80001fc:	e000      	b.n	8000200 <isButtonPress+0x24>
	}
	return 0;
 80001fe:	2300      	movs	r3, #0
}
 8000200:	4618      	mov	r0, r3
 8000202:	370c      	adds	r7, #12
 8000204:	46bd      	mov	sp, r7
 8000206:	bc80      	pop	{r7}
 8000208:	4770      	bx	lr
 800020a:	bf00      	nop
 800020c:	200008b0 	.word	0x200008b0

08000210 <task_display_time_1>:
// Khai báo biến toàn cục
  // Biến này lưu giá trị của lane hiện tại


// Wrapper hàm không tham số, chuyển tham số lane vào hàm chính
void task_display_time_1(void) {
 8000210:	b580      	push	{r7, lr}
 8000212:	af00      	add	r7, sp, #0
    task_display_time(1);  // Gọi hàm chính với tham số là lane
 8000214:	2001      	movs	r0, #1
 8000216:	f000 f82d 	bl	8000274 <task_display_time>
}
 800021a:	bf00      	nop
 800021c:	bd80      	pop	{r7, pc}

0800021e <task_display_time_0>:
void task_display_time_0(void) {
 800021e:	b580      	push	{r7, lr}
 8000220:	af00      	add	r7, sp, #0
    task_display_time(0);  // Gọi hàm chính với tham số là lane
 8000222:	2000      	movs	r0, #0
 8000224:	f000 f826 	bl	8000274 <task_display_time>
}
 8000228:	bf00      	nop
 800022a:	bd80      	pop	{r7, pc}

0800022c <counttime0>:
void counttime0(void){
 800022c:	b480      	push	{r7}
 800022e:	af00      	add	r7, sp, #0
	if (remaining_time_lane_0 >0) {
 8000230:	4b06      	ldr	r3, [pc, #24]	; (800024c <counttime0+0x20>)
 8000232:	681b      	ldr	r3, [r3, #0]
 8000234:	2b00      	cmp	r3, #0
 8000236:	dd04      	ble.n	8000242 <counttime0+0x16>
	    remaining_time_lane_0--; // Giảm thời gian còn lại
 8000238:	4b04      	ldr	r3, [pc, #16]	; (800024c <counttime0+0x20>)
 800023a:	681b      	ldr	r3, [r3, #0]
 800023c:	3b01      	subs	r3, #1
 800023e:	4a03      	ldr	r2, [pc, #12]	; (800024c <counttime0+0x20>)
 8000240:	6013      	str	r3, [r2, #0]
	  }
}
 8000242:	bf00      	nop
 8000244:	46bd      	mov	sp, r7
 8000246:	bc80      	pop	{r7}
 8000248:	4770      	bx	lr
 800024a:	bf00      	nop
 800024c:	200008c4 	.word	0x200008c4

08000250 <counttime1>:
void counttime1(void){
 8000250:	b480      	push	{r7}
 8000252:	af00      	add	r7, sp, #0
	if (remaining_time_lane_1> 0) {
 8000254:	4b06      	ldr	r3, [pc, #24]	; (8000270 <counttime1+0x20>)
 8000256:	681b      	ldr	r3, [r3, #0]
 8000258:	2b00      	cmp	r3, #0
 800025a:	dd04      	ble.n	8000266 <counttime1+0x16>
		    remaining_time_lane_1--;
 800025c:	4b04      	ldr	r3, [pc, #16]	; (8000270 <counttime1+0x20>)
 800025e:	681b      	ldr	r3, [r3, #0]
 8000260:	3b01      	subs	r3, #1
 8000262:	4a03      	ldr	r2, [pc, #12]	; (8000270 <counttime1+0x20>)
 8000264:	6013      	str	r3, [r2, #0]
		  }
}
 8000266:	bf00      	nop
 8000268:	46bd      	mov	sp, r7
 800026a:	bc80      	pop	{r7}
 800026c:	4770      	bx	lr
 800026e:	bf00      	nop
 8000270:	200008c8 	.word	0x200008c8

08000274 <task_display_time>:
// Hàm hiển thị thời gian còn lại cho từng lane
void task_display_time(int lane) {
 8000274:	b580      	push	{r7, lr}
 8000276:	b082      	sub	sp, #8
 8000278:	af00      	add	r7, sp, #0
 800027a:	6078      	str	r0, [r7, #4]
    if (lane == 0) {
 800027c:	687b      	ldr	r3, [r7, #4]
 800027e:	2b00      	cmp	r3, #0
 8000280:	d11e      	bne.n	80002c0 <task_display_time+0x4c>

        display7SEG(0, remaining_time_lane_0 % 10);  // Hiển thị hàng đơn vị
 8000282:	4b20      	ldr	r3, [pc, #128]	; (8000304 <task_display_time+0x90>)
 8000284:	681a      	ldr	r2, [r3, #0]
 8000286:	4b20      	ldr	r3, [pc, #128]	; (8000308 <task_display_time+0x94>)
 8000288:	fb83 1302 	smull	r1, r3, r3, r2
 800028c:	1099      	asrs	r1, r3, #2
 800028e:	17d3      	asrs	r3, r2, #31
 8000290:	1ac9      	subs	r1, r1, r3
 8000292:	460b      	mov	r3, r1
 8000294:	009b      	lsls	r3, r3, #2
 8000296:	440b      	add	r3, r1
 8000298:	005b      	lsls	r3, r3, #1
 800029a:	1ad1      	subs	r1, r2, r3
 800029c:	2000      	movs	r0, #0
 800029e:	f000 fb1b 	bl	80008d8 <display7SEG>
        display7SEG(1,(int) remaining_time_lane_0 / 10);// Hiển thị hàng chục
 80002a2:	4b18      	ldr	r3, [pc, #96]	; (8000304 <task_display_time+0x90>)
 80002a4:	681b      	ldr	r3, [r3, #0]
 80002a6:	4a18      	ldr	r2, [pc, #96]	; (8000308 <task_display_time+0x94>)
 80002a8:	fb82 1203 	smull	r1, r2, r2, r3
 80002ac:	1092      	asrs	r2, r2, #2
 80002ae:	17db      	asrs	r3, r3, #31
 80002b0:	1ad3      	subs	r3, r2, r3
 80002b2:	4619      	mov	r1, r3
 80002b4:	2001      	movs	r0, #1
 80002b6:	f000 fb0f 	bl	80008d8 <display7SEG>
       counttime0();
 80002ba:	f7ff ffb7 	bl	800022c <counttime0>

        display7SEG(2, remaining_time_lane_1 % 10);  // Hiển thị hàng đơn vị
        display7SEG(3,(int) remaining_time_lane_1 / 10);  // Hiển thị hàng chục
        counttime1();
    }
}
 80002be:	e01d      	b.n	80002fc <task_display_time+0x88>
        display7SEG(2, remaining_time_lane_1 % 10);  // Hiển thị hàng đơn vị
 80002c0:	4b12      	ldr	r3, [pc, #72]	; (800030c <task_display_time+0x98>)
 80002c2:	681a      	ldr	r2, [r3, #0]
 80002c4:	4b10      	ldr	r3, [pc, #64]	; (8000308 <task_display_time+0x94>)
 80002c6:	fb83 1302 	smull	r1, r3, r3, r2
 80002ca:	1099      	asrs	r1, r3, #2
 80002cc:	17d3      	asrs	r3, r2, #31
 80002ce:	1ac9      	subs	r1, r1, r3
 80002d0:	460b      	mov	r3, r1
 80002d2:	009b      	lsls	r3, r3, #2
 80002d4:	440b      	add	r3, r1
 80002d6:	005b      	lsls	r3, r3, #1
 80002d8:	1ad1      	subs	r1, r2, r3
 80002da:	2002      	movs	r0, #2
 80002dc:	f000 fafc 	bl	80008d8 <display7SEG>
        display7SEG(3,(int) remaining_time_lane_1 / 10);  // Hiển thị hàng chục
 80002e0:	4b0a      	ldr	r3, [pc, #40]	; (800030c <task_display_time+0x98>)
 80002e2:	681b      	ldr	r3, [r3, #0]
 80002e4:	4a08      	ldr	r2, [pc, #32]	; (8000308 <task_display_time+0x94>)
 80002e6:	fb82 1203 	smull	r1, r2, r2, r3
 80002ea:	1092      	asrs	r2, r2, #2
 80002ec:	17db      	asrs	r3, r3, #31
 80002ee:	1ad3      	subs	r3, r2, r3
 80002f0:	4619      	mov	r1, r3
 80002f2:	2003      	movs	r0, #3
 80002f4:	f000 faf0 	bl	80008d8 <display7SEG>
        counttime1();
 80002f8:	f7ff ffaa 	bl	8000250 <counttime1>
}
 80002fc:	bf00      	nop
 80002fe:	3708      	adds	r7, #8
 8000300:	46bd      	mov	sp, r7
 8000302:	bd80      	pop	{r7, pc}
 8000304:	200008c4 	.word	0x200008c4
 8000308:	66666667 	.word	0x66666667
 800030c:	200008c8 	.word	0x200008c8

08000310 <task_fsm_lane_0>:
// Quản lý trạng thái cho lane 0
void task_fsm_lane_0(void) {
 8000310:	b580      	push	{r7, lr}
 8000312:	af00      	add	r7, sp, #0
    switch (LED_STATE[0]) {
 8000314:	4b25      	ldr	r3, [pc, #148]	; (80003ac <task_fsm_lane_0+0x9c>)
 8000316:	681b      	ldr	r3, [r3, #0]
 8000318:	3b01      	subs	r3, #1
 800031a:	2b03      	cmp	r3, #3
 800031c:	d842      	bhi.n	80003a4 <task_fsm_lane_0+0x94>
 800031e:	a201      	add	r2, pc, #4	; (adr r2, 8000324 <task_fsm_lane_0+0x14>)
 8000320:	f852 f023 	ldr.w	pc, [r2, r3, lsl #2]
 8000324:	08000335 	.word	0x08000335
 8000328:	0800034b 	.word	0x0800034b
 800032c:	08000387 	.word	0x08000387
 8000330:	08000369 	.word	0x08000369
        case INIT_STATE:
            setTrafficLightDefault(0);
 8000334:	2000      	movs	r0, #0
 8000336:	f000 fe89 	bl	800104c <setTrafficLightDefault>
            remaining_time_lane_0 = RED_DURATION;
 800033a:	4b1d      	ldr	r3, [pc, #116]	; (80003b0 <task_fsm_lane_0+0xa0>)
 800033c:	681b      	ldr	r3, [r3, #0]
 800033e:	4a1d      	ldr	r2, [pc, #116]	; (80003b4 <task_fsm_lane_0+0xa4>)
 8000340:	6013      	str	r3, [r2, #0]
            LED_STATE[0] = RED_STATE;
 8000342:	4b1a      	ldr	r3, [pc, #104]	; (80003ac <task_fsm_lane_0+0x9c>)
 8000344:	2202      	movs	r2, #2
 8000346:	601a      	str	r2, [r3, #0]
            break;
 8000348:	e02d      	b.n	80003a6 <task_fsm_lane_0+0x96>
        case RED_STATE:
        	setTrafficLightRed(0);
 800034a:	2000      	movs	r0, #0
 800034c:	f000 feaa 	bl	80010a4 <setTrafficLightRed>
        	SCH_Add_Task(task_red_state_lane_0,RED_DURATION*1000,0);
 8000350:	4b17      	ldr	r3, [pc, #92]	; (80003b0 <task_fsm_lane_0+0xa0>)
 8000352:	681b      	ldr	r3, [r3, #0]
 8000354:	f44f 727a 	mov.w	r2, #1000	; 0x3e8
 8000358:	fb02 f303 	mul.w	r3, r2, r3
 800035c:	2200      	movs	r2, #0
 800035e:	4619      	mov	r1, r3
 8000360:	4815      	ldr	r0, [pc, #84]	; (80003b8 <task_fsm_lane_0+0xa8>)
 8000362:	f000 fbfd 	bl	8000b60 <SCH_Add_Task>
            break;
 8000366:	e01e      	b.n	80003a6 <task_fsm_lane_0+0x96>
        case YELLOW_STATE:
        	setTrafficLightAmber(0);
 8000368:	2000      	movs	r0, #0
 800036a:	f000 fef3 	bl	8001154 <setTrafficLightAmber>
        	SCH_Add_Task(task_yellow_state_lane_0,YELLOW_DURATION*1000,0);
 800036e:	4b13      	ldr	r3, [pc, #76]	; (80003bc <task_fsm_lane_0+0xac>)
 8000370:	681b      	ldr	r3, [r3, #0]
 8000372:	f44f 727a 	mov.w	r2, #1000	; 0x3e8
 8000376:	fb02 f303 	mul.w	r3, r2, r3
 800037a:	2200      	movs	r2, #0
 800037c:	4619      	mov	r1, r3
 800037e:	4810      	ldr	r0, [pc, #64]	; (80003c0 <task_fsm_lane_0+0xb0>)
 8000380:	f000 fbee 	bl	8000b60 <SCH_Add_Task>
            break;
 8000384:	e00f      	b.n	80003a6 <task_fsm_lane_0+0x96>
        case GREEN_STATE:
        	setTrafficLightGreen(0);
 8000386:	2000      	movs	r0, #0
 8000388:	f000 feb8 	bl	80010fc <setTrafficLightGreen>
              	SCH_Add_Task(task_green_state_lane_0,GREEN_DURATION*1000,0);
 800038c:	4b0d      	ldr	r3, [pc, #52]	; (80003c4 <task_fsm_lane_0+0xb4>)
 800038e:	681b      	ldr	r3, [r3, #0]
 8000390:	f44f 727a 	mov.w	r2, #1000	; 0x3e8
 8000394:	fb02 f303 	mul.w	r3, r2, r3
 8000398:	2200      	movs	r2, #0
 800039a:	4619      	mov	r1, r3
 800039c:	480a      	ldr	r0, [pc, #40]	; (80003c8 <task_fsm_lane_0+0xb8>)
 800039e:	f000 fbdf 	bl	8000b60 <SCH_Add_Task>
                  break;
 80003a2:	e000      	b.n	80003a6 <task_fsm_lane_0+0x96>
        default:
            break;
 80003a4:	bf00      	nop
    }
}
 80003a6:	bf00      	nop
 80003a8:	bd80      	pop	{r7, pc}
 80003aa:	bf00      	nop
 80003ac:	20000000 	.word	0x20000000
 80003b0:	2000000c 	.word	0x2000000c
 80003b4:	200008c4 	.word	0x200008c4
 80003b8:	08000489 	.word	0x08000489
 80003bc:	20000010 	.word	0x20000010
 80003c0:	080004b1 	.word	0x080004b1
 80003c4:	20000014 	.word	0x20000014
 80003c8:	080004d9 	.word	0x080004d9

080003cc <task_fsm_lane_1>:

// Quản lý trạng thái cho lane 1
void task_fsm_lane_1(void) {
 80003cc:	b580      	push	{r7, lr}
 80003ce:	af00      	add	r7, sp, #0
    switch (LED_STATE[1]) {
 80003d0:	4b25      	ldr	r3, [pc, #148]	; (8000468 <task_fsm_lane_1+0x9c>)
 80003d2:	685b      	ldr	r3, [r3, #4]
 80003d4:	3b01      	subs	r3, #1
 80003d6:	2b03      	cmp	r3, #3
 80003d8:	d842      	bhi.n	8000460 <task_fsm_lane_1+0x94>
 80003da:	a201      	add	r2, pc, #4	; (adr r2, 80003e0 <task_fsm_lane_1+0x14>)
 80003dc:	f852 f023 	ldr.w	pc, [r2, r3, lsl #2]
 80003e0:	080003f1 	.word	0x080003f1
 80003e4:	08000407 	.word	0x08000407
 80003e8:	08000443 	.word	0x08000443
 80003ec:	08000425 	.word	0x08000425
        case INIT_STATE:
            setTrafficLightDefault(1);
 80003f0:	2001      	movs	r0, #1
 80003f2:	f000 fe2b 	bl	800104c <setTrafficLightDefault>
            remaining_time_lane_1 = GREEN_DURATION;
 80003f6:	4b1d      	ldr	r3, [pc, #116]	; (800046c <task_fsm_lane_1+0xa0>)
 80003f8:	681b      	ldr	r3, [r3, #0]
 80003fa:	4a1d      	ldr	r2, [pc, #116]	; (8000470 <task_fsm_lane_1+0xa4>)
 80003fc:	6013      	str	r3, [r2, #0]
            LED_STATE[1] = GREEN_STATE;
 80003fe:	4b1a      	ldr	r3, [pc, #104]	; (8000468 <task_fsm_lane_1+0x9c>)
 8000400:	2203      	movs	r2, #3
 8000402:	605a      	str	r2, [r3, #4]
            break;
 8000404:	e02d      	b.n	8000462 <task_fsm_lane_1+0x96>
        case RED_STATE:
        	setTrafficLightRed(1);
 8000406:	2001      	movs	r0, #1
 8000408:	f000 fe4c 	bl	80010a4 <setTrafficLightRed>
        	SCH_Add_Task(task_red_state_lane_1,RED_DURATION*1000,0);
 800040c:	4b19      	ldr	r3, [pc, #100]	; (8000474 <task_fsm_lane_1+0xa8>)
 800040e:	681b      	ldr	r3, [r3, #0]
 8000410:	f44f 727a 	mov.w	r2, #1000	; 0x3e8
 8000414:	fb02 f303 	mul.w	r3, r2, r3
 8000418:	2200      	movs	r2, #0
 800041a:	4619      	mov	r1, r3
 800041c:	4816      	ldr	r0, [pc, #88]	; (8000478 <task_fsm_lane_1+0xac>)
 800041e:	f000 fb9f 	bl	8000b60 <SCH_Add_Task>

        	break;
 8000422:	e01e      	b.n	8000462 <task_fsm_lane_1+0x96>
        case YELLOW_STATE:
        	setTrafficLightAmber(1);
 8000424:	2001      	movs	r0, #1
 8000426:	f000 fe95 	bl	8001154 <setTrafficLightAmber>
        	SCH_Add_Task(task_yellow_state_lane_1,YELLOW_DURATION*1000,0);
 800042a:	4b14      	ldr	r3, [pc, #80]	; (800047c <task_fsm_lane_1+0xb0>)
 800042c:	681b      	ldr	r3, [r3, #0]
 800042e:	f44f 727a 	mov.w	r2, #1000	; 0x3e8
 8000432:	fb02 f303 	mul.w	r3, r2, r3
 8000436:	2200      	movs	r2, #0
 8000438:	4619      	mov	r1, r3
 800043a:	4811      	ldr	r0, [pc, #68]	; (8000480 <task_fsm_lane_1+0xb4>)
 800043c:	f000 fb90 	bl	8000b60 <SCH_Add_Task>
             break;
 8000440:	e00f      	b.n	8000462 <task_fsm_lane_1+0x96>
        case GREEN_STATE:
        	setTrafficLightGreen(1);
 8000442:	2001      	movs	r0, #1
 8000444:	f000 fe5a 	bl	80010fc <setTrafficLightGreen>
        	SCH_Add_Task(task_green_state_lane_1,GREEN_DURATION*1000,0);
 8000448:	4b08      	ldr	r3, [pc, #32]	; (800046c <task_fsm_lane_1+0xa0>)
 800044a:	681b      	ldr	r3, [r3, #0]
 800044c:	f44f 727a 	mov.w	r2, #1000	; 0x3e8
 8000450:	fb02 f303 	mul.w	r3, r2, r3
 8000454:	2200      	movs	r2, #0
 8000456:	4619      	mov	r1, r3
 8000458:	480a      	ldr	r0, [pc, #40]	; (8000484 <task_fsm_lane_1+0xb8>)
 800045a:	f000 fb81 	bl	8000b60 <SCH_Add_Task>
        	break;
 800045e:	e000      	b.n	8000462 <task_fsm_lane_1+0x96>
        default:
        	break;
 8000460:	bf00      	nop
            }
    }
 8000462:	bf00      	nop
 8000464:	bd80      	pop	{r7, pc}
 8000466:	bf00      	nop
 8000468:	20000000 	.word	0x20000000
 800046c:	20000014 	.word	0x20000014
 8000470:	200008c8 	.word	0x200008c8
 8000474:	2000000c 	.word	0x2000000c
 8000478:	08000501 	.word	0x08000501
 800047c:	20000010 	.word	0x20000010
 8000480:	08000529 	.word	0x08000529
 8000484:	08000551 	.word	0x08000551

08000488 <task_red_state_lane_0>:

void task_red_state_lane_0(void) {
 8000488:	b480      	push	{r7}
 800048a:	af00      	add	r7, sp, #0
	 //setTrafficLightRed(0);
	   LED_STATE[0] = GREEN_STATE;
 800048c:	4b05      	ldr	r3, [pc, #20]	; (80004a4 <task_red_state_lane_0+0x1c>)
 800048e:	2203      	movs	r2, #3
 8000490:	601a      	str	r2, [r3, #0]
	   remaining_time_lane_0 = GREEN_DURATION;
 8000492:	4b05      	ldr	r3, [pc, #20]	; (80004a8 <task_red_state_lane_0+0x20>)
 8000494:	681b      	ldr	r3, [r3, #0]
 8000496:	4a05      	ldr	r2, [pc, #20]	; (80004ac <task_red_state_lane_0+0x24>)
 8000498:	6013      	str	r3, [r2, #0]
	 //  SCH_Add_Task(task_display_time_0,0,500);

	}
 800049a:	bf00      	nop
 800049c:	46bd      	mov	sp, r7
 800049e:	bc80      	pop	{r7}
 80004a0:	4770      	bx	lr
 80004a2:	bf00      	nop
 80004a4:	20000000 	.word	0x20000000
 80004a8:	20000014 	.word	0x20000014
 80004ac:	200008c4 	.word	0x200008c4

080004b0 <task_yellow_state_lane_0>:
	void task_yellow_state_lane_0(void) {
 80004b0:	b480      	push	{r7}
 80004b2:	af00      	add	r7, sp, #0
	   // setTrafficLightAmber(0);
	    LED_STATE[0] = RED_STATE;
 80004b4:	4b05      	ldr	r3, [pc, #20]	; (80004cc <task_yellow_state_lane_0+0x1c>)
 80004b6:	2202      	movs	r2, #2
 80004b8:	601a      	str	r2, [r3, #0]
	    remaining_time_lane_0 = RED_DURATION;
 80004ba:	4b05      	ldr	r3, [pc, #20]	; (80004d0 <task_yellow_state_lane_0+0x20>)
 80004bc:	681b      	ldr	r3, [r3, #0]
 80004be:	4a05      	ldr	r2, [pc, #20]	; (80004d4 <task_yellow_state_lane_0+0x24>)
 80004c0:	6013      	str	r3, [r2, #0]
	   // SCH_Add_Task(task_display_time_0,0,500);

	}
 80004c2:	bf00      	nop
 80004c4:	46bd      	mov	sp, r7
 80004c6:	bc80      	pop	{r7}
 80004c8:	4770      	bx	lr
 80004ca:	bf00      	nop
 80004cc:	20000000 	.word	0x20000000
 80004d0:	2000000c 	.word	0x2000000c
 80004d4:	200008c4 	.word	0x200008c4

080004d8 <task_green_state_lane_0>:
	void task_green_state_lane_0(void) {
 80004d8:	b480      	push	{r7}
 80004da:	af00      	add	r7, sp, #0
		//setTrafficLightGreen(0);
	      remaining_time_lane_0 = YELLOW_DURATION;
 80004dc:	4b05      	ldr	r3, [pc, #20]	; (80004f4 <task_green_state_lane_0+0x1c>)
 80004de:	681b      	ldr	r3, [r3, #0]
 80004e0:	4a05      	ldr	r2, [pc, #20]	; (80004f8 <task_green_state_lane_0+0x20>)
 80004e2:	6013      	str	r3, [r2, #0]

	      LED_STATE[0] = YELLOW_STATE;
 80004e4:	4b05      	ldr	r3, [pc, #20]	; (80004fc <task_green_state_lane_0+0x24>)
 80004e6:	2204      	movs	r2, #4
 80004e8:	601a      	str	r2, [r3, #0]
	     // SCH_Add_Task(task_display_time_0,0,500);
	}
 80004ea:	bf00      	nop
 80004ec:	46bd      	mov	sp, r7
 80004ee:	bc80      	pop	{r7}
 80004f0:	4770      	bx	lr
 80004f2:	bf00      	nop
 80004f4:	20000010 	.word	0x20000010
 80004f8:	200008c4 	.word	0x200008c4
 80004fc:	20000000 	.word	0x20000000

08000500 <task_red_state_lane_1>:

void task_red_state_lane_1(void) {
 8000500:	b480      	push	{r7}
 8000502:	af00      	add	r7, sp, #0
	//setTrafficLightRed(1);
   LED_STATE[1] = GREEN_STATE;
 8000504:	4b05      	ldr	r3, [pc, #20]	; (800051c <task_red_state_lane_1+0x1c>)
 8000506:	2203      	movs	r2, #3
 8000508:	605a      	str	r2, [r3, #4]
   remaining_time_lane_1 = GREEN_DURATION;
 800050a:	4b05      	ldr	r3, [pc, #20]	; (8000520 <task_red_state_lane_1+0x20>)
 800050c:	681b      	ldr	r3, [r3, #0]
 800050e:	4a05      	ldr	r2, [pc, #20]	; (8000524 <task_red_state_lane_1+0x24>)
 8000510:	6013      	str	r3, [r2, #0]
 //  SCH_Add_Task(task_display_time_1,0,500);


}
 8000512:	bf00      	nop
 8000514:	46bd      	mov	sp, r7
 8000516:	bc80      	pop	{r7}
 8000518:	4770      	bx	lr
 800051a:	bf00      	nop
 800051c:	20000000 	.word	0x20000000
 8000520:	20000014 	.word	0x20000014
 8000524:	200008c8 	.word	0x200008c8

08000528 <task_yellow_state_lane_1>:
void task_yellow_state_lane_1(void) {
 8000528:	b480      	push	{r7}
 800052a:	af00      	add	r7, sp, #0
   // setTrafficLightAmber(1);
    LED_STATE[1] = RED_STATE;
 800052c:	4b05      	ldr	r3, [pc, #20]	; (8000544 <task_yellow_state_lane_1+0x1c>)
 800052e:	2202      	movs	r2, #2
 8000530:	605a      	str	r2, [r3, #4]
    remaining_time_lane_1 = RED_DURATION;
 8000532:	4b05      	ldr	r3, [pc, #20]	; (8000548 <task_yellow_state_lane_1+0x20>)
 8000534:	681b      	ldr	r3, [r3, #0]
 8000536:	4a05      	ldr	r2, [pc, #20]	; (800054c <task_yellow_state_lane_1+0x24>)
 8000538:	6013      	str	r3, [r2, #0]
  // SCH_Add_Task(task_display_time_1,0,500);

}
 800053a:	bf00      	nop
 800053c:	46bd      	mov	sp, r7
 800053e:	bc80      	pop	{r7}
 8000540:	4770      	bx	lr
 8000542:	bf00      	nop
 8000544:	20000000 	.word	0x20000000
 8000548:	2000000c 	.word	0x2000000c
 800054c:	200008c8 	.word	0x200008c8

08000550 <task_green_state_lane_1>:
void task_green_state_lane_1(void) {
 8000550:	b480      	push	{r7}
 8000552:	af00      	add	r7, sp, #0
	// setTrafficLightGreen(1);
      remaining_time_lane_1 = YELLOW_DURATION;
 8000554:	4b05      	ldr	r3, [pc, #20]	; (800056c <task_green_state_lane_1+0x1c>)
 8000556:	681b      	ldr	r3, [r3, #0]
 8000558:	4a05      	ldr	r2, [pc, #20]	; (8000570 <task_green_state_lane_1+0x20>)
 800055a:	6013      	str	r3, [r2, #0]
      LED_STATE[1] = YELLOW_STATE;
 800055c:	4b05      	ldr	r3, [pc, #20]	; (8000574 <task_green_state_lane_1+0x24>)
 800055e:	2204      	movs	r2, #4
 8000560:	605a      	str	r2, [r3, #4]
    //  SCH_Add_Task(task_display_time_1,0,500);
}
 8000562:	bf00      	nop
 8000564:	46bd      	mov	sp, r7
 8000566:	bc80      	pop	{r7}
 8000568:	4770      	bx	lr
 800056a:	bf00      	nop
 800056c:	20000010 	.word	0x20000010
 8000570:	200008c8 	.word	0x200008c8
 8000574:	20000000 	.word	0x20000000

08000578 <changeMode>:
 *      Author: Admin
 */

#include"fsm_manual.h"
int tempDuration = 0;
void changeMode(int mode){
 8000578:	b580      	push	{r7, lr}
 800057a:	b082      	sub	sp, #8
 800057c:	af00      	add	r7, sp, #0
 800057e:	6078      	str	r0, [r7, #4]
	setTrafficLightDefault(0);
 8000580:	2000      	movs	r0, #0
 8000582:	f000 fd63 	bl	800104c <setTrafficLightDefault>
	setTrafficLightDefault(1);
 8000586:	2001      	movs	r0, #1
 8000588:	f000 fd60 	bl	800104c <setTrafficLightDefault>
	MODE = mode;
 800058c:	4a03      	ldr	r2, [pc, #12]	; (800059c <changeMode+0x24>)
 800058e:	687b      	ldr	r3, [r7, #4]
 8000590:	6013      	str	r3, [r2, #0]

}
 8000592:	bf00      	nop
 8000594:	3708      	adds	r7, #8
 8000596:	46bd      	mov	sp, r7
 8000598:	bd80      	pop	{r7, pc}
 800059a:	bf00      	nop
 800059c:	20000008 	.word	0x20000008

080005a0 <displayDuration>:

void displayDuration(int mode, int duration){
 80005a0:	b580      	push	{r7, lr}
 80005a2:	b082      	sub	sp, #8
 80005a4:	af00      	add	r7, sp, #0
 80005a6:	6078      	str	r0, [r7, #4]
 80005a8:	6039      	str	r1, [r7, #0]
	display7SEG(0, mode);
 80005aa:	6879      	ldr	r1, [r7, #4]
 80005ac:	2000      	movs	r0, #0
 80005ae:	f000 f993 	bl	80008d8 <display7SEG>
	display7SEG(1, 0);
 80005b2:	2100      	movs	r1, #0
 80005b4:	2001      	movs	r0, #1
 80005b6:	f000 f98f 	bl	80008d8 <display7SEG>
	display7SEG(2, duration % 10);
 80005ba:	683a      	ldr	r2, [r7, #0]
 80005bc:	4b0e      	ldr	r3, [pc, #56]	; (80005f8 <displayDuration+0x58>)
 80005be:	fb83 1302 	smull	r1, r3, r3, r2
 80005c2:	1099      	asrs	r1, r3, #2
 80005c4:	17d3      	asrs	r3, r2, #31
 80005c6:	1ac9      	subs	r1, r1, r3
 80005c8:	460b      	mov	r3, r1
 80005ca:	009b      	lsls	r3, r3, #2
 80005cc:	440b      	add	r3, r1
 80005ce:	005b      	lsls	r3, r3, #1
 80005d0:	1ad1      	subs	r1, r2, r3
 80005d2:	2002      	movs	r0, #2
 80005d4:	f000 f980 	bl	80008d8 <display7SEG>
	display7SEG(3, (int) (duration / 10));
 80005d8:	683b      	ldr	r3, [r7, #0]
 80005da:	4a07      	ldr	r2, [pc, #28]	; (80005f8 <displayDuration+0x58>)
 80005dc:	fb82 1203 	smull	r1, r2, r2, r3
 80005e0:	1092      	asrs	r2, r2, #2
 80005e2:	17db      	asrs	r3, r3, #31
 80005e4:	1ad3      	subs	r3, r2, r3
 80005e6:	4619      	mov	r1, r3
 80005e8:	2003      	movs	r0, #3
 80005ea:	f000 f975 	bl	80008d8 <display7SEG>

}
 80005ee:	bf00      	nop
 80005f0:	3708      	adds	r7, #8
 80005f2:	46bd      	mov	sp, r7
 80005f4:	bd80      	pop	{r7, pc}
 80005f6:	bf00      	nop
 80005f8:	66666667 	.word	0x66666667

080005fc <fsm_manual_run>:

void fsm_manual_run(){
 80005fc:	b580      	push	{r7, lr}
 80005fe:	af00      	add	r7, sp, #0
	switch(MODE){
 8000600:	4b92      	ldr	r3, [pc, #584]	; (800084c <fsm_manual_run+0x250>)
 8000602:	681b      	ldr	r3, [r3, #0]
 8000604:	3b0b      	subs	r3, #11
 8000606:	2b03      	cmp	r3, #3
 8000608:	f200 8115 	bhi.w	8000836 <fsm_manual_run+0x23a>
 800060c:	a201      	add	r2, pc, #4	; (adr r2, 8000614 <fsm_manual_run+0x18>)
 800060e:	f852 f023 	ldr.w	pc, [r2, r3, lsl #2]
 8000612:	bf00      	nop
 8000614:	08000625 	.word	0x08000625
 8000618:	08000687 	.word	0x08000687
 800061c:	08000717 	.word	0x08000717
 8000620:	080007a5 	.word	0x080007a5
		case MODE_1:
//			fsm_automatic_run(0);
//			fsm_automatic_run(1);
			//displayDuration(1, 0);
			 SCH_Add_Task(task_fsm_lane_0,0,10);  // Lên lịch cho lane 0
 8000624:	220a      	movs	r2, #10
 8000626:	2100      	movs	r1, #0
 8000628:	4889      	ldr	r0, [pc, #548]	; (8000850 <fsm_manual_run+0x254>)
 800062a:	f000 fa99 	bl	8000b60 <SCH_Add_Task>
			 SCH_Add_Task(task_fsm_lane_1, 0,10);  // Lên lịch cho lane 1
 800062e:	220a      	movs	r2, #10
 8000630:	2100      	movs	r1, #0
 8000632:	4888      	ldr	r0, [pc, #544]	; (8000854 <fsm_manual_run+0x258>)
 8000634:	f000 fa94 	bl	8000b60 <SCH_Add_Task>
			 SCH_Add_Task(task_display_time_1,0,1000);
 8000638:	f44f 727a 	mov.w	r2, #1000	; 0x3e8
 800063c:	2100      	movs	r1, #0
 800063e:	4886      	ldr	r0, [pc, #536]	; (8000858 <fsm_manual_run+0x25c>)
 8000640:	f000 fa8e 	bl	8000b60 <SCH_Add_Task>
			 SCH_Add_Task(task_display_time_0,0,1000);
 8000644:	f44f 727a 	mov.w	r2, #1000	; 0x3e8
 8000648:	2100      	movs	r1, #0
 800064a:	4884      	ldr	r0, [pc, #528]	; (800085c <fsm_manual_run+0x260>)
 800064c:	f000 fa88 	bl	8000b60 <SCH_Add_Task>
			if (isButtonPress(0) == 1){
 8000650:	2000      	movs	r0, #0
 8000652:	f7ff fdc3 	bl	80001dc <isButtonPress>
 8000656:	4603      	mov	r3, r0
 8000658:	2b01      	cmp	r3, #1
 800065a:	f040 80ee 	bne.w	800083a <fsm_manual_run+0x23e>
				SCH_Delete_Task(task_fsm_lane_0);
 800065e:	487c      	ldr	r0, [pc, #496]	; (8000850 <fsm_manual_run+0x254>)
 8000660:	f000 fbbc 	bl	8000ddc <SCH_Delete_Task>
				SCH_Delete_Task(task_fsm_lane_1);
 8000664:	487b      	ldr	r0, [pc, #492]	; (8000854 <fsm_manual_run+0x258>)
 8000666:	f000 fbb9 	bl	8000ddc <SCH_Delete_Task>
				SCH_Delete_Task(task_display_time_1);
 800066a:	487b      	ldr	r0, [pc, #492]	; (8000858 <fsm_manual_run+0x25c>)
 800066c:	f000 fbb6 	bl	8000ddc <SCH_Delete_Task>
				SCH_Delete_Task(task_display_time_0);
 8000670:	487a      	ldr	r0, [pc, #488]	; (800085c <fsm_manual_run+0x260>)
 8000672:	f000 fbb3 	bl	8000ddc <SCH_Delete_Task>
				tempDuration = RED_DURATION;
 8000676:	4b7a      	ldr	r3, [pc, #488]	; (8000860 <fsm_manual_run+0x264>)
 8000678:	681b      	ldr	r3, [r3, #0]
 800067a:	4a7a      	ldr	r2, [pc, #488]	; (8000864 <fsm_manual_run+0x268>)
 800067c:	6013      	str	r3, [r2, #0]
				changeMode(MODE_2);
 800067e:	200c      	movs	r0, #12
 8000680:	f7ff ff7a 	bl	8000578 <changeMode>
			}
			break;
 8000684:	e0d9      	b.n	800083a <fsm_manual_run+0x23e>
		case MODE_2:

			displayDuration(2, tempDuration);
 8000686:	4b77      	ldr	r3, [pc, #476]	; (8000864 <fsm_manual_run+0x268>)
 8000688:	681b      	ldr	r3, [r3, #0]
 800068a:	4619      	mov	r1, r3
 800068c:	2002      	movs	r0, #2
 800068e:	f7ff ff87 	bl	80005a0 <displayDuration>
			if (isButtonPress(0) == 1){
 8000692:	2000      	movs	r0, #0
 8000694:	f7ff fda2 	bl	80001dc <isButtonPress>
 8000698:	4603      	mov	r3, r0
 800069a:	2b01      	cmp	r3, #1
 800069c:	d106      	bne.n	80006ac <fsm_manual_run+0xb0>
				tempDuration = YELLOW_DURATION;
 800069e:	4b72      	ldr	r3, [pc, #456]	; (8000868 <fsm_manual_run+0x26c>)
 80006a0:	681b      	ldr	r3, [r3, #0]
 80006a2:	4a70      	ldr	r2, [pc, #448]	; (8000864 <fsm_manual_run+0x268>)
 80006a4:	6013      	str	r3, [r2, #0]
				changeMode(MODE_3);
 80006a6:	200d      	movs	r0, #13
 80006a8:	f7ff ff66 	bl	8000578 <changeMode>
			}
			if (isButtonPress(1) == 1){
 80006ac:	2001      	movs	r0, #1
 80006ae:	f7ff fd95 	bl	80001dc <isButtonPress>
 80006b2:	4603      	mov	r3, r0
 80006b4:	2b01      	cmp	r3, #1
 80006b6:	d116      	bne.n	80006e6 <fsm_manual_run+0xea>
				tempDuration++;
 80006b8:	4b6a      	ldr	r3, [pc, #424]	; (8000864 <fsm_manual_run+0x268>)
 80006ba:	681b      	ldr	r3, [r3, #0]
 80006bc:	3301      	adds	r3, #1
 80006be:	4a69      	ldr	r2, [pc, #420]	; (8000864 <fsm_manual_run+0x268>)
 80006c0:	6013      	str	r3, [r2, #0]
				tempDuration %= 100;
 80006c2:	4b68      	ldr	r3, [pc, #416]	; (8000864 <fsm_manual_run+0x268>)
 80006c4:	681a      	ldr	r2, [r3, #0]
 80006c6:	4b69      	ldr	r3, [pc, #420]	; (800086c <fsm_manual_run+0x270>)
 80006c8:	fb83 1302 	smull	r1, r3, r3, r2
 80006cc:	1159      	asrs	r1, r3, #5
 80006ce:	17d3      	asrs	r3, r2, #31
 80006d0:	1acb      	subs	r3, r1, r3
 80006d2:	2164      	movs	r1, #100	; 0x64
 80006d4:	fb01 f303 	mul.w	r3, r1, r3
 80006d8:	1ad3      	subs	r3, r2, r3
 80006da:	4a62      	ldr	r2, [pc, #392]	; (8000864 <fsm_manual_run+0x268>)
 80006dc:	6013      	str	r3, [r2, #0]
				RED_DURATION = tempDuration;
 80006de:	4b61      	ldr	r3, [pc, #388]	; (8000864 <fsm_manual_run+0x268>)
 80006e0:	681b      	ldr	r3, [r3, #0]
 80006e2:	4a5f      	ldr	r2, [pc, #380]	; (8000860 <fsm_manual_run+0x264>)
 80006e4:	6013      	str	r3, [r2, #0]
			}
			if (isButtonPress(2) == 1){
 80006e6:	2002      	movs	r0, #2
 80006e8:	f7ff fd78 	bl	80001dc <isButtonPress>
 80006ec:	4603      	mov	r3, r0
 80006ee:	2b01      	cmp	r3, #1
 80006f0:	d103      	bne.n	80006fa <fsm_manual_run+0xfe>
				RED_DURATION = tempDuration;
 80006f2:	4b5c      	ldr	r3, [pc, #368]	; (8000864 <fsm_manual_run+0x268>)
 80006f4:	681b      	ldr	r3, [r3, #0]
 80006f6:	4a5a      	ldr	r2, [pc, #360]	; (8000860 <fsm_manual_run+0x264>)
 80006f8:	6013      	str	r3, [r2, #0]
			}
			if(buttonFlag[1]== 0) {
 80006fa:	4b5d      	ldr	r3, [pc, #372]	; (8000870 <fsm_manual_run+0x274>)
 80006fc:	685b      	ldr	r3, [r3, #4]
 80006fe:	2b00      	cmp	r3, #0
 8000700:	f040 809d 	bne.w	800083e <fsm_manual_run+0x242>
				HAL_GPIO_TogglePin(GPIOA, RED1_Pin);
 8000704:	2102      	movs	r1, #2
 8000706:	485b      	ldr	r0, [pc, #364]	; (8000874 <fsm_manual_run+0x278>)
 8000708:	f001 f88f 	bl	800182a <HAL_GPIO_TogglePin>
				HAL_GPIO_TogglePin(GPIOA, RED2_Pin);
 800070c:	2110      	movs	r1, #16
 800070e:	4859      	ldr	r0, [pc, #356]	; (8000874 <fsm_manual_run+0x278>)
 8000710:	f001 f88b 	bl	800182a <HAL_GPIO_TogglePin>
			}
			break;
 8000714:	e093      	b.n	800083e <fsm_manual_run+0x242>
		case MODE_3:

			displayDuration(3, tempDuration);
 8000716:	4b53      	ldr	r3, [pc, #332]	; (8000864 <fsm_manual_run+0x268>)
 8000718:	681b      	ldr	r3, [r3, #0]
 800071a:	4619      	mov	r1, r3
 800071c:	2003      	movs	r0, #3
 800071e:	f7ff ff3f 	bl	80005a0 <displayDuration>
			if (isButtonPress(0) == 1){
 8000722:	2000      	movs	r0, #0
 8000724:	f7ff fd5a 	bl	80001dc <isButtonPress>
 8000728:	4603      	mov	r3, r0
 800072a:	2b01      	cmp	r3, #1
 800072c:	d106      	bne.n	800073c <fsm_manual_run+0x140>
				tempDuration = GREEN_DURATION;
 800072e:	4b52      	ldr	r3, [pc, #328]	; (8000878 <fsm_manual_run+0x27c>)
 8000730:	681b      	ldr	r3, [r3, #0]
 8000732:	4a4c      	ldr	r2, [pc, #304]	; (8000864 <fsm_manual_run+0x268>)
 8000734:	6013      	str	r3, [r2, #0]
				changeMode(MODE_4);
 8000736:	200e      	movs	r0, #14
 8000738:	f7ff ff1e 	bl	8000578 <changeMode>
			}
			if (isButtonPress(1) == 1){
 800073c:	2001      	movs	r0, #1
 800073e:	f7ff fd4d 	bl	80001dc <isButtonPress>
 8000742:	4603      	mov	r3, r0
 8000744:	2b01      	cmp	r3, #1
 8000746:	d116      	bne.n	8000776 <fsm_manual_run+0x17a>
				tempDuration++;
 8000748:	4b46      	ldr	r3, [pc, #280]	; (8000864 <fsm_manual_run+0x268>)
 800074a:	681b      	ldr	r3, [r3, #0]
 800074c:	3301      	adds	r3, #1
 800074e:	4a45      	ldr	r2, [pc, #276]	; (8000864 <fsm_manual_run+0x268>)
 8000750:	6013      	str	r3, [r2, #0]
				tempDuration %= 100;
 8000752:	4b44      	ldr	r3, [pc, #272]	; (8000864 <fsm_manual_run+0x268>)
 8000754:	681a      	ldr	r2, [r3, #0]
 8000756:	4b45      	ldr	r3, [pc, #276]	; (800086c <fsm_manual_run+0x270>)
 8000758:	fb83 1302 	smull	r1, r3, r3, r2
 800075c:	1159      	asrs	r1, r3, #5
 800075e:	17d3      	asrs	r3, r2, #31
 8000760:	1acb      	subs	r3, r1, r3
 8000762:	2164      	movs	r1, #100	; 0x64
 8000764:	fb01 f303 	mul.w	r3, r1, r3
 8000768:	1ad3      	subs	r3, r2, r3
 800076a:	4a3e      	ldr	r2, [pc, #248]	; (8000864 <fsm_manual_run+0x268>)
 800076c:	6013      	str	r3, [r2, #0]
				YELLOW_DURATION = tempDuration;
 800076e:	4b3d      	ldr	r3, [pc, #244]	; (8000864 <fsm_manual_run+0x268>)
 8000770:	681b      	ldr	r3, [r3, #0]
 8000772:	4a3d      	ldr	r2, [pc, #244]	; (8000868 <fsm_manual_run+0x26c>)
 8000774:	6013      	str	r3, [r2, #0]
			}
			if (isButtonPress(2) == 1){
 8000776:	2002      	movs	r0, #2
 8000778:	f7ff fd30 	bl	80001dc <isButtonPress>
 800077c:	4603      	mov	r3, r0
 800077e:	2b01      	cmp	r3, #1
 8000780:	d103      	bne.n	800078a <fsm_manual_run+0x18e>
				YELLOW_DURATION = tempDuration;
 8000782:	4b38      	ldr	r3, [pc, #224]	; (8000864 <fsm_manual_run+0x268>)
 8000784:	681b      	ldr	r3, [r3, #0]
 8000786:	4a38      	ldr	r2, [pc, #224]	; (8000868 <fsm_manual_run+0x26c>)
 8000788:	6013      	str	r3, [r2, #0]
			}
			if(buttonFlag[1]==0) {
 800078a:	4b39      	ldr	r3, [pc, #228]	; (8000870 <fsm_manual_run+0x274>)
 800078c:	685b      	ldr	r3, [r3, #4]
 800078e:	2b00      	cmp	r3, #0
 8000790:	d157      	bne.n	8000842 <fsm_manual_run+0x246>
				HAL_GPIO_TogglePin(GPIOA, YELLOW1_Pin);
 8000792:	2104      	movs	r1, #4
 8000794:	4837      	ldr	r0, [pc, #220]	; (8000874 <fsm_manual_run+0x278>)
 8000796:	f001 f848 	bl	800182a <HAL_GPIO_TogglePin>
				HAL_GPIO_TogglePin(GPIOA, YELLOW2_Pin);
 800079a:	2120      	movs	r1, #32
 800079c:	4835      	ldr	r0, [pc, #212]	; (8000874 <fsm_manual_run+0x278>)
 800079e:	f001 f844 	bl	800182a <HAL_GPIO_TogglePin>
						}
			break;
 80007a2:	e04e      	b.n	8000842 <fsm_manual_run+0x246>
		case MODE_4:

			displayDuration(4, tempDuration);
 80007a4:	4b2f      	ldr	r3, [pc, #188]	; (8000864 <fsm_manual_run+0x268>)
 80007a6:	681b      	ldr	r3, [r3, #0]
 80007a8:	4619      	mov	r1, r3
 80007aa:	2004      	movs	r0, #4
 80007ac:	f7ff fef8 	bl	80005a0 <displayDuration>
			if (isButtonPress(0) == 1){
 80007b0:	2000      	movs	r0, #0
 80007b2:	f7ff fd13 	bl	80001dc <isButtonPress>
 80007b6:	4603      	mov	r3, r0
 80007b8:	2b01      	cmp	r3, #1
 80007ba:	d108      	bne.n	80007ce <fsm_manual_run+0x1d2>
				LED_STATE [0] = INIT_STATE;
 80007bc:	4b2f      	ldr	r3, [pc, #188]	; (800087c <fsm_manual_run+0x280>)
 80007be:	2201      	movs	r2, #1
 80007c0:	601a      	str	r2, [r3, #0]
				LED_STATE [1] = INIT_STATE;
 80007c2:	4b2e      	ldr	r3, [pc, #184]	; (800087c <fsm_manual_run+0x280>)
 80007c4:	2201      	movs	r2, #1
 80007c6:	605a      	str	r2, [r3, #4]
				changeMode(MODE_1);
 80007c8:	200b      	movs	r0, #11
 80007ca:	f7ff fed5 	bl	8000578 <changeMode>
			}
			if (isButtonPress(1) == 1){
 80007ce:	2001      	movs	r0, #1
 80007d0:	f7ff fd04 	bl	80001dc <isButtonPress>
 80007d4:	4603      	mov	r3, r0
 80007d6:	2b01      	cmp	r3, #1
 80007d8:	d116      	bne.n	8000808 <fsm_manual_run+0x20c>
				tempDuration++;
 80007da:	4b22      	ldr	r3, [pc, #136]	; (8000864 <fsm_manual_run+0x268>)
 80007dc:	681b      	ldr	r3, [r3, #0]
 80007de:	3301      	adds	r3, #1
 80007e0:	4a20      	ldr	r2, [pc, #128]	; (8000864 <fsm_manual_run+0x268>)
 80007e2:	6013      	str	r3, [r2, #0]
				tempDuration %= 100;
 80007e4:	4b1f      	ldr	r3, [pc, #124]	; (8000864 <fsm_manual_run+0x268>)
 80007e6:	681a      	ldr	r2, [r3, #0]
 80007e8:	4b20      	ldr	r3, [pc, #128]	; (800086c <fsm_manual_run+0x270>)
 80007ea:	fb83 1302 	smull	r1, r3, r3, r2
 80007ee:	1159      	asrs	r1, r3, #5
 80007f0:	17d3      	asrs	r3, r2, #31
 80007f2:	1acb      	subs	r3, r1, r3
 80007f4:	2164      	movs	r1, #100	; 0x64
 80007f6:	fb01 f303 	mul.w	r3, r1, r3
 80007fa:	1ad3      	subs	r3, r2, r3
 80007fc:	4a19      	ldr	r2, [pc, #100]	; (8000864 <fsm_manual_run+0x268>)
 80007fe:	6013      	str	r3, [r2, #0]
				GREEN_DURATION = tempDuration;
 8000800:	4b18      	ldr	r3, [pc, #96]	; (8000864 <fsm_manual_run+0x268>)
 8000802:	681b      	ldr	r3, [r3, #0]
 8000804:	4a1c      	ldr	r2, [pc, #112]	; (8000878 <fsm_manual_run+0x27c>)
 8000806:	6013      	str	r3, [r2, #0]
			}
			if (isButtonPress(2) == 1){
 8000808:	2002      	movs	r0, #2
 800080a:	f7ff fce7 	bl	80001dc <isButtonPress>
 800080e:	4603      	mov	r3, r0
 8000810:	2b01      	cmp	r3, #1
 8000812:	d103      	bne.n	800081c <fsm_manual_run+0x220>
				GREEN_DURATION = tempDuration;
 8000814:	4b13      	ldr	r3, [pc, #76]	; (8000864 <fsm_manual_run+0x268>)
 8000816:	681b      	ldr	r3, [r3, #0]
 8000818:	4a17      	ldr	r2, [pc, #92]	; (8000878 <fsm_manual_run+0x27c>)
 800081a:	6013      	str	r3, [r2, #0]
			}
			if(buttonFlag[1]==0) {
 800081c:	4b14      	ldr	r3, [pc, #80]	; (8000870 <fsm_manual_run+0x274>)
 800081e:	685b      	ldr	r3, [r3, #4]
 8000820:	2b00      	cmp	r3, #0
 8000822:	d110      	bne.n	8000846 <fsm_manual_run+0x24a>
				HAL_GPIO_TogglePin(GPIOA, GREEN1_Pin);
 8000824:	2108      	movs	r1, #8
 8000826:	4813      	ldr	r0, [pc, #76]	; (8000874 <fsm_manual_run+0x278>)
 8000828:	f000 ffff 	bl	800182a <HAL_GPIO_TogglePin>
				HAL_GPIO_TogglePin(GPIOA, GREEN2_Pin);
 800082c:	2140      	movs	r1, #64	; 0x40
 800082e:	4811      	ldr	r0, [pc, #68]	; (8000874 <fsm_manual_run+0x278>)
 8000830:	f000 fffb 	bl	800182a <HAL_GPIO_TogglePin>
			}
			break;
 8000834:	e007      	b.n	8000846 <fsm_manual_run+0x24a>
		default:
			 break;
 8000836:	bf00      	nop
 8000838:	e006      	b.n	8000848 <fsm_manual_run+0x24c>
			break;
 800083a:	bf00      	nop
 800083c:	e004      	b.n	8000848 <fsm_manual_run+0x24c>
			break;
 800083e:	bf00      	nop
 8000840:	e002      	b.n	8000848 <fsm_manual_run+0x24c>
			break;
 8000842:	bf00      	nop
 8000844:	e000      	b.n	8000848 <fsm_manual_run+0x24c>
			break;
 8000846:	bf00      	nop

	}
}
 8000848:	bf00      	nop
 800084a:	bd80      	pop	{r7, pc}
 800084c:	20000008 	.word	0x20000008
 8000850:	08000311 	.word	0x08000311
 8000854:	080003cd 	.word	0x080003cd
 8000858:	08000211 	.word	0x08000211
 800085c:	0800021f 	.word	0x0800021f
 8000860:	2000000c 	.word	0x2000000c
 8000864:	200008c0 	.word	0x200008c0
 8000868:	20000010 	.word	0x20000010
 800086c:	51eb851f 	.word	0x51eb851f
 8000870:	200008b0 	.word	0x200008b0
 8000874:	40010800 	.word	0x40010800
 8000878:	20000014 	.word	0x20000014
 800087c:	20000000 	.word	0x20000000

08000880 <displaySEG>:
 *  Created on: 28 Oct 2024
 *      Author: Admin
 */

#include"led7_seg.h"
void displaySEG(int bit, uint16_t type) {
 8000880:	b580      	push	{r7, lr}
 8000882:	b082      	sub	sp, #8
 8000884:	af00      	add	r7, sp, #0
 8000886:	6078      	str	r0, [r7, #4]
 8000888:	460b      	mov	r3, r1
 800088a:	807b      	strh	r3, [r7, #2]
    if (bit < 9) {
 800088c:	687b      	ldr	r3, [r7, #4]
 800088e:	2b08      	cmp	r3, #8
 8000890:	dc0a      	bgt.n	80008a8 <displaySEG+0x28>

        HAL_GPIO_WritePin(GPIOA, BIT_A[bit], type);
 8000892:	4a0d      	ldr	r2, [pc, #52]	; (80008c8 <displaySEG+0x48>)
 8000894:	687b      	ldr	r3, [r7, #4]
 8000896:	f832 3013 	ldrh.w	r3, [r2, r3, lsl #1]
 800089a:	887a      	ldrh	r2, [r7, #2]
 800089c:	b2d2      	uxtb	r2, r2
 800089e:	4619      	mov	r1, r3
 80008a0:	480a      	ldr	r0, [pc, #40]	; (80008cc <displaySEG+0x4c>)
 80008a2:	f000 ffaa 	bl	80017fa <HAL_GPIO_WritePin>
    } else {

        HAL_GPIO_WritePin(GPIOB, BIT_B[bit - 9], type);
    }
}
 80008a6:	e00a      	b.n	80008be <displaySEG+0x3e>
        HAL_GPIO_WritePin(GPIOB, BIT_B[bit - 9], type);
 80008a8:	687b      	ldr	r3, [r7, #4]
 80008aa:	3b09      	subs	r3, #9
 80008ac:	4a08      	ldr	r2, [pc, #32]	; (80008d0 <displaySEG+0x50>)
 80008ae:	f832 3013 	ldrh.w	r3, [r2, r3, lsl #1]
 80008b2:	887a      	ldrh	r2, [r7, #2]
 80008b4:	b2d2      	uxtb	r2, r2
 80008b6:	4619      	mov	r1, r3
 80008b8:	4806      	ldr	r0, [pc, #24]	; (80008d4 <displaySEG+0x54>)
 80008ba:	f000 ff9e 	bl	80017fa <HAL_GPIO_WritePin>
}
 80008be:	bf00      	nop
 80008c0:	3708      	adds	r7, #8
 80008c2:	46bd      	mov	sp, r7
 80008c4:	bd80      	pop	{r7, pc}
 80008c6:	bf00      	nop
 80008c8:	2000001c 	.word	0x2000001c
 80008cc:	40010800 	.word	0x40010800
 80008d0:	20000030 	.word	0x20000030
 80008d4:	40010c00 	.word	0x40010c00

080008d8 <display7SEG>:

void display7SEG(int type, int num) {
 80008d8:	b580      	push	{r7, lr}
 80008da:	b084      	sub	sp, #16
 80008dc:	af00      	add	r7, sp, #0
 80008de:	6078      	str	r0, [r7, #4]
 80008e0:	6039      	str	r1, [r7, #0]

    if (num < 0 || num > 9) {
 80008e2:	683b      	ldr	r3, [r7, #0]
 80008e4:	2b00      	cmp	r3, #0
 80008e6:	db02      	blt.n	80008ee <display7SEG+0x16>
 80008e8:	683b      	ldr	r3, [r7, #0]
 80008ea:	2b09      	cmp	r3, #9
 80008ec:	dd01      	ble.n	80008f2 <display7SEG+0x1a>
        num = 0;
 80008ee:	2300      	movs	r3, #0
 80008f0:	603b      	str	r3, [r7, #0]
    }

    for (int i = 0; i < 4; i++) {
 80008f2:	2300      	movs	r3, #0
 80008f4:	60fb      	str	r3, [r7, #12]
 80008f6:	e011      	b.n	800091c <display7SEG+0x44>
        displaySEG(type * 4 + i, (num >> i) & 0x01);
 80008f8:	687b      	ldr	r3, [r7, #4]
 80008fa:	009a      	lsls	r2, r3, #2
 80008fc:	68fb      	ldr	r3, [r7, #12]
 80008fe:	18d0      	adds	r0, r2, r3
 8000900:	683a      	ldr	r2, [r7, #0]
 8000902:	68fb      	ldr	r3, [r7, #12]
 8000904:	fa42 f303 	asr.w	r3, r2, r3
 8000908:	b29b      	uxth	r3, r3
 800090a:	f003 0301 	and.w	r3, r3, #1
 800090e:	b29b      	uxth	r3, r3
 8000910:	4619      	mov	r1, r3
 8000912:	f7ff ffb5 	bl	8000880 <displaySEG>
    for (int i = 0; i < 4; i++) {
 8000916:	68fb      	ldr	r3, [r7, #12]
 8000918:	3301      	adds	r3, #1
 800091a:	60fb      	str	r3, [r7, #12]
 800091c:	68fb      	ldr	r3, [r7, #12]
 800091e:	2b03      	cmp	r3, #3
 8000920:	ddea      	ble.n	80008f8 <display7SEG+0x20>
    }
}
 8000922:	bf00      	nop
 8000924:	bf00      	nop
 8000926:	3710      	adds	r7, #16
 8000928:	46bd      	mov	sp, r7
 800092a:	bd80      	pop	{r7, pc}

0800092c <main>:
/**
  * @brief  The application entry point.
  * @retval int
  */
int main(void)
{
 800092c:	b580      	push	{r7, lr}
 800092e:	af00      	add	r7, sp, #0
  /* USER CODE END 1 */

  /* MCU Configuration--------------------------------------------------------*/

  /* Reset of all peripherals, Initializes the Flash interface and the Systick. */
  HAL_Init();
 8000930:	f000 fc62 	bl	80011f8 <HAL_Init>
  /* USER CODE BEGIN Init */

  /* USER CODE END Init */

  /* Configure the system clock */
  SystemClock_Config();
 8000934:	f000 f81a 	bl	800096c <SystemClock_Config>
  /* USER CODE BEGIN SysInit */

  /* USER CODE END SysInit */

  /* Initialize all configured peripherals */
  MX_GPIO_Init();
 8000938:	f000 f8a0 	bl	8000a7c <MX_GPIO_Init>
  MX_TIM2_Init();
 800093c:	f000 f852 	bl	80009e4 <MX_TIM2_Init>
  /* USER CODE BEGIN 2 */
  HAL_TIM_Base_Start_IT(&htim2);
 8000940:	4807      	ldr	r0, [pc, #28]	; (8000960 <main+0x34>)
 8000942:	f001 fbb7 	bl	80020b4 <HAL_TIM_Base_Start_IT>
  /* USER CODE BEGIN WHILE */
//  SCH_Init();

//	  SCH_Add_Task(task_fsm_lane_0,0,10);  // Lên lịch cho lane 0
//    SCH_Add_Task(task_fsm_lane_1, 0,10);  // Lên lịch cho lane 1
SCH_Add_Task(fsm_manual_run, 50,10);
 8000946:	220a      	movs	r2, #10
 8000948:	2132      	movs	r1, #50	; 0x32
 800094a:	4806      	ldr	r0, [pc, #24]	; (8000964 <main+0x38>)
 800094c:	f000 f908 	bl	8000b60 <SCH_Add_Task>
 SCH_Add_Task(getKeyinput1, 0, 50);
 8000950:	2232      	movs	r2, #50	; 0x32
 8000952:	2100      	movs	r1, #0
 8000954:	4804      	ldr	r0, [pc, #16]	; (8000968 <main+0x3c>)
 8000956:	f000 f903 	bl	8000b60 <SCH_Add_Task>

  while (1)
  {


	  SCH_Dispatch_Task();
 800095a:	f000 f989 	bl	8000c70 <SCH_Dispatch_Task>
 800095e:	e7fc      	b.n	800095a <main+0x2e>
 8000960:	20000904 	.word	0x20000904
 8000964:	080005fd 	.word	0x080005fd
 8000968:	0800014d 	.word	0x0800014d

0800096c <SystemClock_Config>:
/**
  * @brief System Clock Configuration
  * @retval None
  */
void SystemClock_Config(void)
{
 800096c:	b580      	push	{r7, lr}
 800096e:	b090      	sub	sp, #64	; 0x40
 8000970:	af00      	add	r7, sp, #0
  RCC_OscInitTypeDef RCC_OscInitStruct = {0};
 8000972:	f107 0318 	add.w	r3, r7, #24
 8000976:	2228      	movs	r2, #40	; 0x28
 8000978:	2100      	movs	r1, #0
 800097a:	4618      	mov	r0, r3
 800097c:	f002 f9a2 	bl	8002cc4 <memset>
  RCC_ClkInitTypeDef RCC_ClkInitStruct = {0};
 8000980:	1d3b      	adds	r3, r7, #4
 8000982:	2200      	movs	r2, #0
 8000984:	601a      	str	r2, [r3, #0]
 8000986:	605a      	str	r2, [r3, #4]
 8000988:	609a      	str	r2, [r3, #8]
 800098a:	60da      	str	r2, [r3, #12]
 800098c:	611a      	str	r2, [r3, #16]

  /** Initializes the RCC Oscillators according to the specified parameters
  * in the RCC_OscInitTypeDef structure.
  */
  RCC_OscInitStruct.OscillatorType = RCC_OSCILLATORTYPE_HSI;
 800098e:	2302      	movs	r3, #2
 8000990:	61bb      	str	r3, [r7, #24]
  RCC_OscInitStruct.HSIState = RCC_HSI_ON;
 8000992:	2301      	movs	r3, #1
 8000994:	62bb      	str	r3, [r7, #40]	; 0x28
  RCC_OscInitStruct.HSICalibrationValue = RCC_HSICALIBRATION_DEFAULT;
 8000996:	2310      	movs	r3, #16
 8000998:	62fb      	str	r3, [r7, #44]	; 0x2c
  RCC_OscInitStruct.PLL.PLLState = RCC_PLL_NONE;
 800099a:	2300      	movs	r3, #0
 800099c:	637b      	str	r3, [r7, #52]	; 0x34
  if (HAL_RCC_OscConfig(&RCC_OscInitStruct) != HAL_OK)
 800099e:	f107 0318 	add.w	r3, r7, #24
 80009a2:	4618      	mov	r0, r3
 80009a4:	f000 ff5a 	bl	800185c <HAL_RCC_OscConfig>
 80009a8:	4603      	mov	r3, r0
 80009aa:	2b00      	cmp	r3, #0
 80009ac:	d001      	beq.n	80009b2 <SystemClock_Config+0x46>
  {
    Error_Handler();
 80009ae:	f000 f8d1 	bl	8000b54 <Error_Handler>
  }
  /** Initializes the CPU, AHB and APB buses clocks
  */
  RCC_ClkInitStruct.ClockType = RCC_CLOCKTYPE_HCLK|RCC_CLOCKTYPE_SYSCLK
 80009b2:	230f      	movs	r3, #15
 80009b4:	607b      	str	r3, [r7, #4]
                              |RCC_CLOCKTYPE_PCLK1|RCC_CLOCKTYPE_PCLK2;
  RCC_ClkInitStruct.SYSCLKSource = RCC_SYSCLKSOURCE_HSI;
 80009b6:	2300      	movs	r3, #0
 80009b8:	60bb      	str	r3, [r7, #8]
  RCC_ClkInitStruct.AHBCLKDivider = RCC_SYSCLK_DIV1;
 80009ba:	2300      	movs	r3, #0
 80009bc:	60fb      	str	r3, [r7, #12]
  RCC_ClkInitStruct.APB1CLKDivider = RCC_HCLK_DIV1;
 80009be:	2300      	movs	r3, #0
 80009c0:	613b      	str	r3, [r7, #16]
  RCC_ClkInitStruct.APB2CLKDivider = RCC_HCLK_DIV1;
 80009c2:	2300      	movs	r3, #0
 80009c4:	617b      	str	r3, [r7, #20]

  if (HAL_RCC_ClockConfig(&RCC_ClkInitStruct, FLASH_LATENCY_0) != HAL_OK)
 80009c6:	1d3b      	adds	r3, r7, #4
 80009c8:	2100      	movs	r1, #0
 80009ca:	4618      	mov	r0, r3
 80009cc:	f001 f9c6 	bl	8001d5c <HAL_RCC_ClockConfig>
 80009d0:	4603      	mov	r3, r0
 80009d2:	2b00      	cmp	r3, #0
 80009d4:	d001      	beq.n	80009da <SystemClock_Config+0x6e>
  {
    Error_Handler();
 80009d6:	f000 f8bd 	bl	8000b54 <Error_Handler>
  }
}
 80009da:	bf00      	nop
 80009dc:	3740      	adds	r7, #64	; 0x40
 80009de:	46bd      	mov	sp, r7
 80009e0:	bd80      	pop	{r7, pc}
	...

080009e4 <MX_TIM2_Init>:
  * @brief TIM2 Initialization Function
  * @param None
  * @retval None
  */
static void MX_TIM2_Init(void)
{
 80009e4:	b580      	push	{r7, lr}
 80009e6:	b086      	sub	sp, #24
 80009e8:	af00      	add	r7, sp, #0

  /* USER CODE BEGIN TIM2_Init 0 */

  /* USER CODE END TIM2_Init 0 */

  TIM_ClockConfigTypeDef sClockSourceConfig = {0};
 80009ea:	f107 0308 	add.w	r3, r7, #8
 80009ee:	2200      	movs	r2, #0
 80009f0:	601a      	str	r2, [r3, #0]
 80009f2:	605a      	str	r2, [r3, #4]
 80009f4:	609a      	str	r2, [r3, #8]
 80009f6:	60da      	str	r2, [r3, #12]
  TIM_MasterConfigTypeDef sMasterConfig = {0};
 80009f8:	463b      	mov	r3, r7
 80009fa:	2200      	movs	r2, #0
 80009fc:	601a      	str	r2, [r3, #0]
 80009fe:	605a      	str	r2, [r3, #4]

  /* USER CODE BEGIN TIM2_Init 1 */

  /* USER CODE END TIM2_Init 1 */
  htim2.Instance = TIM2;
 8000a00:	4b1d      	ldr	r3, [pc, #116]	; (8000a78 <MX_TIM2_Init+0x94>)
 8000a02:	f04f 4280 	mov.w	r2, #1073741824	; 0x40000000
 8000a06:	601a      	str	r2, [r3, #0]
  htim2.Init.Prescaler = 7999;
 8000a08:	4b1b      	ldr	r3, [pc, #108]	; (8000a78 <MX_TIM2_Init+0x94>)
 8000a0a:	f641 723f 	movw	r2, #7999	; 0x1f3f
 8000a0e:	605a      	str	r2, [r3, #4]
  htim2.Init.CounterMode = TIM_COUNTERMODE_UP;
 8000a10:	4b19      	ldr	r3, [pc, #100]	; (8000a78 <MX_TIM2_Init+0x94>)
 8000a12:	2200      	movs	r2, #0
 8000a14:	609a      	str	r2, [r3, #8]
  htim2.Init.Period = 9;
 8000a16:	4b18      	ldr	r3, [pc, #96]	; (8000a78 <MX_TIM2_Init+0x94>)
 8000a18:	2209      	movs	r2, #9
 8000a1a:	60da      	str	r2, [r3, #12]
  htim2.Init.ClockDivision = TIM_CLOCKDIVISION_DIV1;
 8000a1c:	4b16      	ldr	r3, [pc, #88]	; (8000a78 <MX_TIM2_Init+0x94>)
 8000a1e:	2200      	movs	r2, #0
 8000a20:	611a      	str	r2, [r3, #16]
  htim2.Init.AutoReloadPreload = TIM_AUTORELOAD_PRELOAD_DISABLE;
 8000a22:	4b15      	ldr	r3, [pc, #84]	; (8000a78 <MX_TIM2_Init+0x94>)
 8000a24:	2200      	movs	r2, #0
 8000a26:	619a      	str	r2, [r3, #24]
  if (HAL_TIM_Base_Init(&htim2) != HAL_OK)
 8000a28:	4813      	ldr	r0, [pc, #76]	; (8000a78 <MX_TIM2_Init+0x94>)
 8000a2a:	f001 faf3 	bl	8002014 <HAL_TIM_Base_Init>
 8000a2e:	4603      	mov	r3, r0
 8000a30:	2b00      	cmp	r3, #0
 8000a32:	d001      	beq.n	8000a38 <MX_TIM2_Init+0x54>
  {
    Error_Handler();
 8000a34:	f000 f88e 	bl	8000b54 <Error_Handler>
  }
  sClockSourceConfig.ClockSource = TIM_CLOCKSOURCE_INTERNAL;
 8000a38:	f44f 5380 	mov.w	r3, #4096	; 0x1000
 8000a3c:	60bb      	str	r3, [r7, #8]
  if (HAL_TIM_ConfigClockSource(&htim2, &sClockSourceConfig) != HAL_OK)
 8000a3e:	f107 0308 	add.w	r3, r7, #8
 8000a42:	4619      	mov	r1, r3
 8000a44:	480c      	ldr	r0, [pc, #48]	; (8000a78 <MX_TIM2_Init+0x94>)
 8000a46:	f001 fc71 	bl	800232c <HAL_TIM_ConfigClockSource>
 8000a4a:	4603      	mov	r3, r0
 8000a4c:	2b00      	cmp	r3, #0
 8000a4e:	d001      	beq.n	8000a54 <MX_TIM2_Init+0x70>
  {
    Error_Handler();
 8000a50:	f000 f880 	bl	8000b54 <Error_Handler>
  }
  sMasterConfig.MasterOutputTrigger = TIM_TRGO_RESET;
 8000a54:	2300      	movs	r3, #0
 8000a56:	603b      	str	r3, [r7, #0]
  sMasterConfig.MasterSlaveMode = TIM_MASTERSLAVEMODE_DISABLE;
 8000a58:	2300      	movs	r3, #0
 8000a5a:	607b      	str	r3, [r7, #4]
  if (HAL_TIMEx_MasterConfigSynchronization(&htim2, &sMasterConfig) != HAL_OK)
 8000a5c:	463b      	mov	r3, r7
 8000a5e:	4619      	mov	r1, r3
 8000a60:	4805      	ldr	r0, [pc, #20]	; (8000a78 <MX_TIM2_Init+0x94>)
 8000a62:	f001 fe49 	bl	80026f8 <HAL_TIMEx_MasterConfigSynchronization>
 8000a66:	4603      	mov	r3, r0
 8000a68:	2b00      	cmp	r3, #0
 8000a6a:	d001      	beq.n	8000a70 <MX_TIM2_Init+0x8c>
  {
    Error_Handler();
 8000a6c:	f000 f872 	bl	8000b54 <Error_Handler>
  }
  /* USER CODE BEGIN TIM2_Init 2 */

  /* USER CODE END TIM2_Init 2 */

}
 8000a70:	bf00      	nop
 8000a72:	3718      	adds	r7, #24
 8000a74:	46bd      	mov	sp, r7
 8000a76:	bd80      	pop	{r7, pc}
 8000a78:	20000904 	.word	0x20000904

08000a7c <MX_GPIO_Init>:
  * @brief GPIO Initialization Function
  * @param None
  * @retval None
  */
static void MX_GPIO_Init(void)
{
 8000a7c:	b580      	push	{r7, lr}
 8000a7e:	b086      	sub	sp, #24
 8000a80:	af00      	add	r7, sp, #0
  GPIO_InitTypeDef GPIO_InitStruct = {0};
 8000a82:	f107 0308 	add.w	r3, r7, #8
 8000a86:	2200      	movs	r2, #0
 8000a88:	601a      	str	r2, [r3, #0]
 8000a8a:	605a      	str	r2, [r3, #4]
 8000a8c:	609a      	str	r2, [r3, #8]
 8000a8e:	60da      	str	r2, [r3, #12]

  /* GPIO Ports Clock Enable */
  __HAL_RCC_GPIOA_CLK_ENABLE();
 8000a90:	4b28      	ldr	r3, [pc, #160]	; (8000b34 <MX_GPIO_Init+0xb8>)
 8000a92:	699b      	ldr	r3, [r3, #24]
 8000a94:	4a27      	ldr	r2, [pc, #156]	; (8000b34 <MX_GPIO_Init+0xb8>)
 8000a96:	f043 0304 	orr.w	r3, r3, #4
 8000a9a:	6193      	str	r3, [r2, #24]
 8000a9c:	4b25      	ldr	r3, [pc, #148]	; (8000b34 <MX_GPIO_Init+0xb8>)
 8000a9e:	699b      	ldr	r3, [r3, #24]
 8000aa0:	f003 0304 	and.w	r3, r3, #4
 8000aa4:	607b      	str	r3, [r7, #4]
 8000aa6:	687b      	ldr	r3, [r7, #4]
  __HAL_RCC_GPIOB_CLK_ENABLE();
 8000aa8:	4b22      	ldr	r3, [pc, #136]	; (8000b34 <MX_GPIO_Init+0xb8>)
 8000aaa:	699b      	ldr	r3, [r3, #24]
 8000aac:	4a21      	ldr	r2, [pc, #132]	; (8000b34 <MX_GPIO_Init+0xb8>)
 8000aae:	f043 0308 	orr.w	r3, r3, #8
 8000ab2:	6193      	str	r3, [r2, #24]
 8000ab4:	4b1f      	ldr	r3, [pc, #124]	; (8000b34 <MX_GPIO_Init+0xb8>)
 8000ab6:	699b      	ldr	r3, [r3, #24]
 8000ab8:	f003 0308 	and.w	r3, r3, #8
 8000abc:	603b      	str	r3, [r7, #0]
 8000abe:	683b      	ldr	r3, [r7, #0]

  /*Configure GPIO pin Output Level */
  HAL_GPIO_WritePin(GPIOA, RED1_Pin|YELLOW1_Pin|GREEN1_Pin|RED2_Pin
 8000ac0:	2200      	movs	r2, #0
 8000ac2:	f64f 71fe 	movw	r1, #65534	; 0xfffe
 8000ac6:	481c      	ldr	r0, [pc, #112]	; (8000b38 <MX_GPIO_Init+0xbc>)
 8000ac8:	f000 fe97 	bl	80017fa <HAL_GPIO_WritePin>
                          |YELLOW2_Pin|GREEN2_Pin|BIT0_Pin|BIT1_Pin
                          |BIT2_Pin|BIT3_Pin|BIT4_Pin|BIT5_Pin
                          |BIT6_Pin|BIT7_Pin|BIT8_Pin, GPIO_PIN_RESET);

  /*Configure GPIO pin Output Level */
  HAL_GPIO_WritePin(GPIOB, BIT9_Pin|BIT10_Pin|BIT11_Pin|BIT12_Pin
 8000acc:	2200      	movs	r2, #0
 8000ace:	f44f 717e 	mov.w	r1, #1016	; 0x3f8
 8000ad2:	481a      	ldr	r0, [pc, #104]	; (8000b3c <MX_GPIO_Init+0xc0>)
 8000ad4:	f000 fe91 	bl	80017fa <HAL_GPIO_WritePin>

  /*Configure GPIO pins : RED1_Pin YELLOW1_Pin GREEN1_Pin RED2_Pin
                           YELLOW2_Pin GREEN2_Pin BIT0_Pin BIT1_Pin
                           BIT2_Pin BIT3_Pin BIT4_Pin BIT5_Pin
                           BIT6_Pin BIT7_Pin BIT8_Pin */
  GPIO_InitStruct.Pin = RED1_Pin|YELLOW1_Pin|GREEN1_Pin|RED2_Pin
 8000ad8:	f64f 73fe 	movw	r3, #65534	; 0xfffe
 8000adc:	60bb      	str	r3, [r7, #8]
                          |YELLOW2_Pin|GREEN2_Pin|BIT0_Pin|BIT1_Pin
                          |BIT2_Pin|BIT3_Pin|BIT4_Pin|BIT5_Pin
                          |BIT6_Pin|BIT7_Pin|BIT8_Pin;
  GPIO_InitStruct.Mode = GPIO_MODE_OUTPUT_PP;
 8000ade:	2301      	movs	r3, #1
 8000ae0:	60fb      	str	r3, [r7, #12]
  GPIO_InitStruct.Pull = GPIO_NOPULL;
 8000ae2:	2300      	movs	r3, #0
 8000ae4:	613b      	str	r3, [r7, #16]
  GPIO_InitStruct.Speed = GPIO_SPEED_FREQ_LOW;
 8000ae6:	2302      	movs	r3, #2
 8000ae8:	617b      	str	r3, [r7, #20]
  HAL_GPIO_Init(GPIOA, &GPIO_InitStruct);
 8000aea:	f107 0308 	add.w	r3, r7, #8
 8000aee:	4619      	mov	r1, r3
 8000af0:	4811      	ldr	r0, [pc, #68]	; (8000b38 <MX_GPIO_Init+0xbc>)
 8000af2:	f000 fcf1 	bl	80014d8 <HAL_GPIO_Init>

  /*Configure GPIO pins : BUTTON1_Pin BUTTON2_Pin BUTTON3_Pin */
  GPIO_InitStruct.Pin = BUTTON1_Pin|BUTTON2_Pin|BUTTON3_Pin;
 8000af6:	2307      	movs	r3, #7
 8000af8:	60bb      	str	r3, [r7, #8]
  GPIO_InitStruct.Mode = GPIO_MODE_INPUT;
 8000afa:	2300      	movs	r3, #0
 8000afc:	60fb      	str	r3, [r7, #12]
  GPIO_InitStruct.Pull = GPIO_PULLUP;
 8000afe:	2301      	movs	r3, #1
 8000b00:	613b      	str	r3, [r7, #16]
  HAL_GPIO_Init(GPIOB, &GPIO_InitStruct);
 8000b02:	f107 0308 	add.w	r3, r7, #8
 8000b06:	4619      	mov	r1, r3
 8000b08:	480c      	ldr	r0, [pc, #48]	; (8000b3c <MX_GPIO_Init+0xc0>)
 8000b0a:	f000 fce5 	bl	80014d8 <HAL_GPIO_Init>

  /*Configure GPIO pins : BIT9_Pin BIT10_Pin BIT11_Pin BIT12_Pin
                           BIT13_Pin BIT14_Pin BIT15_Pin */
  GPIO_InitStruct.Pin = BIT9_Pin|BIT10_Pin|BIT11_Pin|BIT12_Pin
 8000b0e:	f44f 737e 	mov.w	r3, #1016	; 0x3f8
 8000b12:	60bb      	str	r3, [r7, #8]
                          |BIT13_Pin|BIT14_Pin|BIT15_Pin;
  GPIO_InitStruct.Mode = GPIO_MODE_OUTPUT_PP;
 8000b14:	2301      	movs	r3, #1
 8000b16:	60fb      	str	r3, [r7, #12]
  GPIO_InitStruct.Pull = GPIO_NOPULL;
 8000b18:	2300      	movs	r3, #0
 8000b1a:	613b      	str	r3, [r7, #16]
  GPIO_InitStruct.Speed = GPIO_SPEED_FREQ_LOW;
 8000b1c:	2302      	movs	r3, #2
 8000b1e:	617b      	str	r3, [r7, #20]
  HAL_GPIO_Init(GPIOB, &GPIO_InitStruct);
 8000b20:	f107 0308 	add.w	r3, r7, #8
 8000b24:	4619      	mov	r1, r3
 8000b26:	4805      	ldr	r0, [pc, #20]	; (8000b3c <MX_GPIO_Init+0xc0>)
 8000b28:	f000 fcd6 	bl	80014d8 <HAL_GPIO_Init>

}
 8000b2c:	bf00      	nop
 8000b2e:	3718      	adds	r7, #24
 8000b30:	46bd      	mov	sp, r7
 8000b32:	bd80      	pop	{r7, pc}
 8000b34:	40021000 	.word	0x40021000
 8000b38:	40010800 	.word	0x40010800
 8000b3c:	40010c00 	.word	0x40010c00

08000b40 <HAL_TIM_PeriodElapsedCallback>:

/* USER CODE BEGIN 4 */
void HAL_TIM_PeriodElapsedCallback(TIM_HandleTypeDef *htim){
 8000b40:	b580      	push	{r7, lr}
 8000b42:	b082      	sub	sp, #8
 8000b44:	af00      	add	r7, sp, #0
 8000b46:	6078      	str	r0, [r7, #4]
	SCH_Update();
 8000b48:	f000 f85c 	bl	8000c04 <SCH_Update>
}
 8000b4c:	bf00      	nop
 8000b4e:	3708      	adds	r7, #8
 8000b50:	46bd      	mov	sp, r7
 8000b52:	bd80      	pop	{r7, pc}

08000b54 <Error_Handler>:
/**
  * @brief  This function is executed in case of error occurrence.
  * @retval None
  */
void Error_Handler(void)
{
 8000b54:	b480      	push	{r7}
 8000b56:	af00      	add	r7, sp, #0
  \details Disables IRQ interrupts by setting the I-bit in the CPSR.
           Can only be executed in Privileged modes.
 */
__STATIC_FORCEINLINE void __disable_irq(void)
{
  __ASM volatile ("cpsid i" : : : "memory");
 8000b58:	b672      	cpsid	i
}
 8000b5a:	bf00      	nop
  /* USER CODE BEGIN Error_Handler_Debug */
  /* User can add his own implementation to report the HAL error return state */
  __disable_irq();
  while (1)
 8000b5c:	e7fe      	b.n	8000b5c <Error_Handler+0x8>
	...

08000b60 <SCH_Add_Task>:
    taskRunList.head = NULL;
    taskRunList.tail = NULL;
    taskRunList.numTask = 0;
}

void SCH_Add_Task(void (*function)(), uint32_t Delay, uint32_t Period){
 8000b60:	b580      	push	{r7, lr}
 8000b62:	b086      	sub	sp, #24
 8000b64:	af00      	add	r7, sp, #0
 8000b66:	60f8      	str	r0, [r7, #12]
 8000b68:	60b9      	str	r1, [r7, #8]
 8000b6a:	607a      	str	r2, [r7, #4]
	if(SCH_Is_Task_Exist(function) == 1)
 8000b6c:	68f8      	ldr	r0, [r7, #12]
 8000b6e:	f000 f985 	bl	8000e7c <SCH_Is_Task_Exist>
 8000b72:	4603      	mov	r3, r0
 8000b74:	2b01      	cmp	r3, #1
 8000b76:	d03b      	beq.n	8000bf0 <SCH_Add_Task+0x90>
		return;
	sTask * newTask = (sTask *) malloc (sizeof(sTask));
 8000b78:	2014      	movs	r0, #20
 8000b7a:	f001 fe51 	bl	8002820 <malloc>
 8000b7e:	4603      	mov	r3, r0
 8000b80:	617b      	str	r3, [r7, #20]
	if (newTask == NULL)
 8000b82:	697b      	ldr	r3, [r7, #20]
 8000b84:	2b00      	cmp	r3, #0
 8000b86:	d035      	beq.n	8000bf4 <SCH_Add_Task+0x94>
		return;

	newTask->pTask = function;
 8000b88:	697b      	ldr	r3, [r7, #20]
 8000b8a:	68fa      	ldr	r2, [r7, #12]
 8000b8c:	601a      	str	r2, [r3, #0]
	newTask->Delay = Delay/10; // scale for TIM2 10ms run
 8000b8e:	68bb      	ldr	r3, [r7, #8]
 8000b90:	4a1a      	ldr	r2, [pc, #104]	; (8000bfc <SCH_Add_Task+0x9c>)
 8000b92:	fba2 2303 	umull	r2, r3, r2, r3
 8000b96:	08da      	lsrs	r2, r3, #3
 8000b98:	697b      	ldr	r3, [r7, #20]
 8000b9a:	605a      	str	r2, [r3, #4]
	newTask->Period = Period/10;
 8000b9c:	687b      	ldr	r3, [r7, #4]
 8000b9e:	4a17      	ldr	r2, [pc, #92]	; (8000bfc <SCH_Add_Task+0x9c>)
 8000ba0:	fba2 2303 	umull	r2, r3, r2, r3
 8000ba4:	08da      	lsrs	r2, r3, #3
 8000ba6:	697b      	ldr	r3, [r7, #20]
 8000ba8:	609a      	str	r2, [r3, #8]
	newTask->next = NULL;
 8000baa:	697b      	ldr	r3, [r7, #20]
 8000bac:	2200      	movs	r2, #0
 8000bae:	60da      	str	r2, [r3, #12]
	newTask->prev = NULL;
 8000bb0:	697b      	ldr	r3, [r7, #20]
 8000bb2:	2200      	movs	r2, #0
 8000bb4:	611a      	str	r2, [r3, #16]

	if(taskList.head == NULL){
 8000bb6:	4b12      	ldr	r3, [pc, #72]	; (8000c00 <SCH_Add_Task+0xa0>)
 8000bb8:	681b      	ldr	r3, [r3, #0]
 8000bba:	2b00      	cmp	r3, #0
 8000bbc:	d106      	bne.n	8000bcc <SCH_Add_Task+0x6c>
		taskList.head = newTask;
 8000bbe:	4a10      	ldr	r2, [pc, #64]	; (8000c00 <SCH_Add_Task+0xa0>)
 8000bc0:	697b      	ldr	r3, [r7, #20]
 8000bc2:	6013      	str	r3, [r2, #0]
		taskList.tail = newTask;
 8000bc4:	4a0e      	ldr	r2, [pc, #56]	; (8000c00 <SCH_Add_Task+0xa0>)
 8000bc6:	697b      	ldr	r3, [r7, #20]
 8000bc8:	6053      	str	r3, [r2, #4]
 8000bca:	e00a      	b.n	8000be2 <SCH_Add_Task+0x82>
	}
	else{
		newTask->prev = taskList.tail;
 8000bcc:	4b0c      	ldr	r3, [pc, #48]	; (8000c00 <SCH_Add_Task+0xa0>)
 8000bce:	685a      	ldr	r2, [r3, #4]
 8000bd0:	697b      	ldr	r3, [r7, #20]
 8000bd2:	611a      	str	r2, [r3, #16]
		taskList.tail->next = newTask;
 8000bd4:	4b0a      	ldr	r3, [pc, #40]	; (8000c00 <SCH_Add_Task+0xa0>)
 8000bd6:	685b      	ldr	r3, [r3, #4]
 8000bd8:	697a      	ldr	r2, [r7, #20]
 8000bda:	60da      	str	r2, [r3, #12]
		taskList.tail = newTask;
 8000bdc:	4a08      	ldr	r2, [pc, #32]	; (8000c00 <SCH_Add_Task+0xa0>)
 8000bde:	697b      	ldr	r3, [r7, #20]
 8000be0:	6053      	str	r3, [r2, #4]
	}
	taskList.numTask++;
 8000be2:	4b07      	ldr	r3, [pc, #28]	; (8000c00 <SCH_Add_Task+0xa0>)
 8000be4:	7a1b      	ldrb	r3, [r3, #8]
 8000be6:	3301      	adds	r3, #1
 8000be8:	b2da      	uxtb	r2, r3
 8000bea:	4b05      	ldr	r3, [pc, #20]	; (8000c00 <SCH_Add_Task+0xa0>)
 8000bec:	721a      	strb	r2, [r3, #8]
 8000bee:	e002      	b.n	8000bf6 <SCH_Add_Task+0x96>
		return;
 8000bf0:	bf00      	nop
 8000bf2:	e000      	b.n	8000bf6 <SCH_Add_Task+0x96>
		return;
 8000bf4:	bf00      	nop
}
 8000bf6:	3718      	adds	r7, #24
 8000bf8:	46bd      	mov	sp, r7
 8000bfa:	bd80      	pop	{r7, pc}
 8000bfc:	cccccccd 	.word	0xcccccccd
 8000c00:	2000094c 	.word	0x2000094c

08000c04 <SCH_Update>:

void SCH_Update(void){
 8000c04:	b580      	push	{r7, lr}
 8000c06:	b082      	sub	sp, #8
 8000c08:	af00      	add	r7, sp, #0
	sTask * temp = taskList.head;
 8000c0a:	4b18      	ldr	r3, [pc, #96]	; (8000c6c <SCH_Update+0x68>)
 8000c0c:	681b      	ldr	r3, [r3, #0]
 8000c0e:	607b      	str	r3, [r7, #4]
	while(temp != NULL){
 8000c10:	e024      	b.n	8000c5c <SCH_Update+0x58>
		if(temp->Delay > 0){
 8000c12:	687b      	ldr	r3, [r7, #4]
 8000c14:	685b      	ldr	r3, [r3, #4]
 8000c16:	2b00      	cmp	r3, #0
 8000c18:	d005      	beq.n	8000c26 <SCH_Update+0x22>
			temp->Delay --;
 8000c1a:	687b      	ldr	r3, [r7, #4]
 8000c1c:	685b      	ldr	r3, [r3, #4]
 8000c1e:	1e5a      	subs	r2, r3, #1
 8000c20:	687b      	ldr	r3, [r7, #4]
 8000c22:	605a      	str	r2, [r3, #4]
 8000c24:	e017      	b.n	8000c56 <SCH_Update+0x52>
		}
		else{
			//temp->RunMe++;
			add_TaskToRunList(temp->pTask);
 8000c26:	687b      	ldr	r3, [r7, #4]
 8000c28:	681b      	ldr	r3, [r3, #0]
 8000c2a:	4618      	mov	r0, r3
 8000c2c:	f000 f83e 	bl	8000cac <add_TaskToRunList>
			temp->Delay = temp->Period;
 8000c30:	687b      	ldr	r3, [r7, #4]
 8000c32:	689a      	ldr	r2, [r3, #8]
 8000c34:	687b      	ldr	r3, [r7, #4]
 8000c36:	605a      	str	r2, [r3, #4]
			if(temp->Period == 0){
 8000c38:	687b      	ldr	r3, [r7, #4]
 8000c3a:	689b      	ldr	r3, [r3, #8]
 8000c3c:	2b00      	cmp	r3, #0
 8000c3e:	d10a      	bne.n	8000c56 <SCH_Update+0x52>
				sTask * del = temp;
 8000c40:	687b      	ldr	r3, [r7, #4]
 8000c42:	603b      	str	r3, [r7, #0]
				temp = temp->next;
 8000c44:	687b      	ldr	r3, [r7, #4]
 8000c46:	68db      	ldr	r3, [r3, #12]
 8000c48:	607b      	str	r3, [r7, #4]
				SCH_Delete_Task(del->pTask);
 8000c4a:	683b      	ldr	r3, [r7, #0]
 8000c4c:	681b      	ldr	r3, [r3, #0]
 8000c4e:	4618      	mov	r0, r3
 8000c50:	f000 f8c4 	bl	8000ddc <SCH_Delete_Task>
				continue;
 8000c54:	e002      	b.n	8000c5c <SCH_Update+0x58>
			}
		}
		temp = temp->next;
 8000c56:	687b      	ldr	r3, [r7, #4]
 8000c58:	68db      	ldr	r3, [r3, #12]
 8000c5a:	607b      	str	r3, [r7, #4]
	while(temp != NULL){
 8000c5c:	687b      	ldr	r3, [r7, #4]
 8000c5e:	2b00      	cmp	r3, #0
 8000c60:	d1d7      	bne.n	8000c12 <SCH_Update+0xe>
	}
}
 8000c62:	bf00      	nop
 8000c64:	bf00      	nop
 8000c66:	3708      	adds	r7, #8
 8000c68:	46bd      	mov	sp, r7
 8000c6a:	bd80      	pop	{r7, pc}
 8000c6c:	2000094c 	.word	0x2000094c

08000c70 <SCH_Dispatch_Task>:

void SCH_Dispatch_Task(void){
 8000c70:	b580      	push	{r7, lr}
 8000c72:	b082      	sub	sp, #8
 8000c74:	af00      	add	r7, sp, #0
	sTask * temp = taskRunList.head;
 8000c76:	4b0c      	ldr	r3, [pc, #48]	; (8000ca8 <SCH_Dispatch_Task+0x38>)
 8000c78:	681b      	ldr	r3, [r3, #0]
 8000c7a:	607b      	str	r3, [r7, #4]
	while(temp != NULL){
 8000c7c:	e00c      	b.n	8000c98 <SCH_Dispatch_Task+0x28>
		temp->pTask();
 8000c7e:	687b      	ldr	r3, [r7, #4]
 8000c80:	681b      	ldr	r3, [r3, #0]
 8000c82:	4798      	blx	r3
		sTask* del = temp;
 8000c84:	687b      	ldr	r3, [r7, #4]
 8000c86:	603b      	str	r3, [r7, #0]
		temp = temp->next;
 8000c88:	687b      	ldr	r3, [r7, #4]
 8000c8a:	68db      	ldr	r3, [r3, #12]
 8000c8c:	607b      	str	r3, [r7, #4]
		delete_TaskFromRunList(del->pTask);
 8000c8e:	683b      	ldr	r3, [r7, #0]
 8000c90:	681b      	ldr	r3, [r3, #0]
 8000c92:	4618      	mov	r0, r3
 8000c94:	f000 f83e 	bl	8000d14 <delete_TaskFromRunList>
	while(temp != NULL){
 8000c98:	687b      	ldr	r3, [r7, #4]
 8000c9a:	2b00      	cmp	r3, #0
 8000c9c:	d1ef      	bne.n	8000c7e <SCH_Dispatch_Task+0xe>
	}
}
 8000c9e:	bf00      	nop
 8000ca0:	bf00      	nop
 8000ca2:	3708      	adds	r7, #8
 8000ca4:	46bd      	mov	sp, r7
 8000ca6:	bd80      	pop	{r7, pc}
 8000ca8:	20000958 	.word	0x20000958

08000cac <add_TaskToRunList>:

void add_TaskToRunList(void (*function)()){
 8000cac:	b580      	push	{r7, lr}
 8000cae:	b084      	sub	sp, #16
 8000cb0:	af00      	add	r7, sp, #0
 8000cb2:	6078      	str	r0, [r7, #4]
	sTask * newTask = (sTask *) malloc ( sizeof(sTask));
 8000cb4:	2014      	movs	r0, #20
 8000cb6:	f001 fdb3 	bl	8002820 <malloc>
 8000cba:	4603      	mov	r3, r0
 8000cbc:	60fb      	str	r3, [r7, #12]
	newTask->pTask = function;
 8000cbe:	68fb      	ldr	r3, [r7, #12]
 8000cc0:	687a      	ldr	r2, [r7, #4]
 8000cc2:	601a      	str	r2, [r3, #0]
	newTask->next = NULL;
 8000cc4:	68fb      	ldr	r3, [r7, #12]
 8000cc6:	2200      	movs	r2, #0
 8000cc8:	60da      	str	r2, [r3, #12]
	newTask->prev = NULL;
 8000cca:	68fb      	ldr	r3, [r7, #12]
 8000ccc:	2200      	movs	r2, #0
 8000cce:	611a      	str	r2, [r3, #16]
	if(taskRunList.numTask == 0){
 8000cd0:	4b0f      	ldr	r3, [pc, #60]	; (8000d10 <add_TaskToRunList+0x64>)
 8000cd2:	7a1b      	ldrb	r3, [r3, #8]
 8000cd4:	2b00      	cmp	r3, #0
 8000cd6:	d106      	bne.n	8000ce6 <add_TaskToRunList+0x3a>
		taskRunList.head = newTask;
 8000cd8:	4a0d      	ldr	r2, [pc, #52]	; (8000d10 <add_TaskToRunList+0x64>)
 8000cda:	68fb      	ldr	r3, [r7, #12]
 8000cdc:	6013      	str	r3, [r2, #0]
		taskRunList.tail = newTask;
 8000cde:	4a0c      	ldr	r2, [pc, #48]	; (8000d10 <add_TaskToRunList+0x64>)
 8000ce0:	68fb      	ldr	r3, [r7, #12]
 8000ce2:	6053      	str	r3, [r2, #4]
 8000ce4:	e00a      	b.n	8000cfc <add_TaskToRunList+0x50>

	}
	else{
		newTask->prev = taskRunList.tail;
 8000ce6:	4b0a      	ldr	r3, [pc, #40]	; (8000d10 <add_TaskToRunList+0x64>)
 8000ce8:	685a      	ldr	r2, [r3, #4]
 8000cea:	68fb      	ldr	r3, [r7, #12]
 8000cec:	611a      	str	r2, [r3, #16]
		taskRunList.tail->next = newTask;
 8000cee:	4b08      	ldr	r3, [pc, #32]	; (8000d10 <add_TaskToRunList+0x64>)
 8000cf0:	685b      	ldr	r3, [r3, #4]
 8000cf2:	68fa      	ldr	r2, [r7, #12]
 8000cf4:	60da      	str	r2, [r3, #12]
		taskRunList.tail = newTask;
 8000cf6:	4a06      	ldr	r2, [pc, #24]	; (8000d10 <add_TaskToRunList+0x64>)
 8000cf8:	68fb      	ldr	r3, [r7, #12]
 8000cfa:	6053      	str	r3, [r2, #4]
	}
	taskRunList.numTask++;
 8000cfc:	4b04      	ldr	r3, [pc, #16]	; (8000d10 <add_TaskToRunList+0x64>)
 8000cfe:	7a1b      	ldrb	r3, [r3, #8]
 8000d00:	3301      	adds	r3, #1
 8000d02:	b2da      	uxtb	r2, r3
 8000d04:	4b02      	ldr	r3, [pc, #8]	; (8000d10 <add_TaskToRunList+0x64>)
 8000d06:	721a      	strb	r2, [r3, #8]
}
 8000d08:	bf00      	nop
 8000d0a:	3710      	adds	r7, #16
 8000d0c:	46bd      	mov	sp, r7
 8000d0e:	bd80      	pop	{r7, pc}
 8000d10:	20000958 	.word	0x20000958

08000d14 <delete_TaskFromRunList>:

void delete_TaskFromRunList(void (*function)()){
 8000d14:	b580      	push	{r7, lr}
 8000d16:	b084      	sub	sp, #16
 8000d18:	af00      	add	r7, sp, #0
 8000d1a:	6078      	str	r0, [r7, #4]
	if(taskRunList.numTask == 0)
 8000d1c:	4b2e      	ldr	r3, [pc, #184]	; (8000dd8 <delete_TaskFromRunList+0xc4>)
 8000d1e:	7a1b      	ldrb	r3, [r3, #8]
 8000d20:	2b00      	cmp	r3, #0
 8000d22:	d054      	beq.n	8000dce <delete_TaskFromRunList+0xba>
		return ;
	if(taskRunList.numTask == 1){
 8000d24:	4b2c      	ldr	r3, [pc, #176]	; (8000dd8 <delete_TaskFromRunList+0xc4>)
 8000d26:	7a1b      	ldrb	r3, [r3, #8]
 8000d28:	2b01      	cmp	r3, #1
 8000d2a:	d112      	bne.n	8000d52 <delete_TaskFromRunList+0x3e>
		sTask * del = taskRunList.head;
 8000d2c:	4b2a      	ldr	r3, [pc, #168]	; (8000dd8 <delete_TaskFromRunList+0xc4>)
 8000d2e:	681b      	ldr	r3, [r3, #0]
 8000d30:	60bb      	str	r3, [r7, #8]
		taskRunList.head = NULL;
 8000d32:	4b29      	ldr	r3, [pc, #164]	; (8000dd8 <delete_TaskFromRunList+0xc4>)
 8000d34:	2200      	movs	r2, #0
 8000d36:	601a      	str	r2, [r3, #0]
		taskRunList.tail = NULL;
 8000d38:	4b27      	ldr	r3, [pc, #156]	; (8000dd8 <delete_TaskFromRunList+0xc4>)
 8000d3a:	2200      	movs	r2, #0
 8000d3c:	605a      	str	r2, [r3, #4]
		free(del);
 8000d3e:	68b8      	ldr	r0, [r7, #8]
 8000d40:	f001 fd76 	bl	8002830 <free>
		taskRunList.numTask--;
 8000d44:	4b24      	ldr	r3, [pc, #144]	; (8000dd8 <delete_TaskFromRunList+0xc4>)
 8000d46:	7a1b      	ldrb	r3, [r3, #8]
 8000d48:	3b01      	subs	r3, #1
 8000d4a:	b2da      	uxtb	r2, r3
 8000d4c:	4b22      	ldr	r3, [pc, #136]	; (8000dd8 <delete_TaskFromRunList+0xc4>)
 8000d4e:	721a      	strb	r2, [r3, #8]
		return;
 8000d50:	e03e      	b.n	8000dd0 <delete_TaskFromRunList+0xbc>
	}
	sTask * temp = taskRunList.head;
 8000d52:	4b21      	ldr	r3, [pc, #132]	; (8000dd8 <delete_TaskFromRunList+0xc4>)
 8000d54:	681b      	ldr	r3, [r3, #0]
 8000d56:	60fb      	str	r3, [r7, #12]
	while(temp != 0){
 8000d58:	e035      	b.n	8000dc6 <delete_TaskFromRunList+0xb2>
		if(temp->pTask == function){
 8000d5a:	68fb      	ldr	r3, [r7, #12]
 8000d5c:	681b      	ldr	r3, [r3, #0]
 8000d5e:	687a      	ldr	r2, [r7, #4]
 8000d60:	429a      	cmp	r2, r3
 8000d62:	d12d      	bne.n	8000dc0 <delete_TaskFromRunList+0xac>
			if(temp->prev == NULL){ // delete head
 8000d64:	68fb      	ldr	r3, [r7, #12]
 8000d66:	691b      	ldr	r3, [r3, #16]
 8000d68:	2b00      	cmp	r3, #0
 8000d6a:	d108      	bne.n	8000d7e <delete_TaskFromRunList+0x6a>
				temp->next->prev = NULL;
 8000d6c:	68fb      	ldr	r3, [r7, #12]
 8000d6e:	68db      	ldr	r3, [r3, #12]
 8000d70:	2200      	movs	r2, #0
 8000d72:	611a      	str	r2, [r3, #16]
				taskRunList.head = temp->next;
 8000d74:	68fb      	ldr	r3, [r7, #12]
 8000d76:	68db      	ldr	r3, [r3, #12]
 8000d78:	4a17      	ldr	r2, [pc, #92]	; (8000dd8 <delete_TaskFromRunList+0xc4>)
 8000d7a:	6013      	str	r3, [r2, #0]
 8000d7c:	e016      	b.n	8000dac <delete_TaskFromRunList+0x98>
			}
			else if (temp->next == NULL){ //delete tail
 8000d7e:	68fb      	ldr	r3, [r7, #12]
 8000d80:	68db      	ldr	r3, [r3, #12]
 8000d82:	2b00      	cmp	r3, #0
 8000d84:	d108      	bne.n	8000d98 <delete_TaskFromRunList+0x84>
				temp->prev->next = NULL;
 8000d86:	68fb      	ldr	r3, [r7, #12]
 8000d88:	691b      	ldr	r3, [r3, #16]
 8000d8a:	2200      	movs	r2, #0
 8000d8c:	60da      	str	r2, [r3, #12]
				taskRunList.tail = temp->prev;
 8000d8e:	68fb      	ldr	r3, [r7, #12]
 8000d90:	691b      	ldr	r3, [r3, #16]
 8000d92:	4a11      	ldr	r2, [pc, #68]	; (8000dd8 <delete_TaskFromRunList+0xc4>)
 8000d94:	6053      	str	r3, [r2, #4]
 8000d96:	e009      	b.n	8000dac <delete_TaskFromRunList+0x98>
			}
			else{
				temp->prev->next = temp->next;
 8000d98:	68fb      	ldr	r3, [r7, #12]
 8000d9a:	691b      	ldr	r3, [r3, #16]
 8000d9c:	68fa      	ldr	r2, [r7, #12]
 8000d9e:	68d2      	ldr	r2, [r2, #12]
 8000da0:	60da      	str	r2, [r3, #12]
				temp->next->prev = temp->prev;
 8000da2:	68fb      	ldr	r3, [r7, #12]
 8000da4:	68db      	ldr	r3, [r3, #12]
 8000da6:	68fa      	ldr	r2, [r7, #12]
 8000da8:	6912      	ldr	r2, [r2, #16]
 8000daa:	611a      	str	r2, [r3, #16]
			}
			taskRunList.numTask--;
 8000dac:	4b0a      	ldr	r3, [pc, #40]	; (8000dd8 <delete_TaskFromRunList+0xc4>)
 8000dae:	7a1b      	ldrb	r3, [r3, #8]
 8000db0:	3b01      	subs	r3, #1
 8000db2:	b2da      	uxtb	r2, r3
 8000db4:	4b08      	ldr	r3, [pc, #32]	; (8000dd8 <delete_TaskFromRunList+0xc4>)
 8000db6:	721a      	strb	r2, [r3, #8]
			free(temp);
 8000db8:	68f8      	ldr	r0, [r7, #12]
 8000dba:	f001 fd39 	bl	8002830 <free>
			return;
 8000dbe:	e007      	b.n	8000dd0 <delete_TaskFromRunList+0xbc>
		}
		temp = temp->next;
 8000dc0:	68fb      	ldr	r3, [r7, #12]
 8000dc2:	68db      	ldr	r3, [r3, #12]
 8000dc4:	60fb      	str	r3, [r7, #12]
	while(temp != 0){
 8000dc6:	68fb      	ldr	r3, [r7, #12]
 8000dc8:	2b00      	cmp	r3, #0
 8000dca:	d1c6      	bne.n	8000d5a <delete_TaskFromRunList+0x46>
 8000dcc:	e000      	b.n	8000dd0 <delete_TaskFromRunList+0xbc>
		return ;
 8000dce:	bf00      	nop
	}
}
 8000dd0:	3710      	adds	r7, #16
 8000dd2:	46bd      	mov	sp, r7
 8000dd4:	bd80      	pop	{r7, pc}
 8000dd6:	bf00      	nop
 8000dd8:	20000958 	.word	0x20000958

08000ddc <SCH_Delete_Task>:

uint8_t SCH_Delete_Task(void (*function)()){
 8000ddc:	b580      	push	{r7, lr}
 8000dde:	b084      	sub	sp, #16
 8000de0:	af00      	add	r7, sp, #0
 8000de2:	6078      	str	r0, [r7, #4]
	if(taskList.numTask == 0)
 8000de4:	4b24      	ldr	r3, [pc, #144]	; (8000e78 <SCH_Delete_Task+0x9c>)
 8000de6:	7a1b      	ldrb	r3, [r3, #8]
 8000de8:	2b00      	cmp	r3, #0
 8000dea:	d101      	bne.n	8000df0 <SCH_Delete_Task+0x14>
		return 0;
 8000dec:	2300      	movs	r3, #0
 8000dee:	e03e      	b.n	8000e6e <SCH_Delete_Task+0x92>
	sTask * temp = taskList.head;
 8000df0:	4b21      	ldr	r3, [pc, #132]	; (8000e78 <SCH_Delete_Task+0x9c>)
 8000df2:	681b      	ldr	r3, [r3, #0]
 8000df4:	60fb      	str	r3, [r7, #12]
	while(temp != 0){
 8000df6:	e036      	b.n	8000e66 <SCH_Delete_Task+0x8a>
		if(temp->pTask == function){
 8000df8:	68fb      	ldr	r3, [r7, #12]
 8000dfa:	681b      	ldr	r3, [r3, #0]
 8000dfc:	687a      	ldr	r2, [r7, #4]
 8000dfe:	429a      	cmp	r2, r3
 8000e00:	d12e      	bne.n	8000e60 <SCH_Delete_Task+0x84>
			if(temp->prev == NULL){ // delete head
 8000e02:	68fb      	ldr	r3, [r7, #12]
 8000e04:	691b      	ldr	r3, [r3, #16]
 8000e06:	2b00      	cmp	r3, #0
 8000e08:	d108      	bne.n	8000e1c <SCH_Delete_Task+0x40>
				temp->next->prev = NULL;
 8000e0a:	68fb      	ldr	r3, [r7, #12]
 8000e0c:	68db      	ldr	r3, [r3, #12]
 8000e0e:	2200      	movs	r2, #0
 8000e10:	611a      	str	r2, [r3, #16]
				taskList.head = temp->next;
 8000e12:	68fb      	ldr	r3, [r7, #12]
 8000e14:	68db      	ldr	r3, [r3, #12]
 8000e16:	4a18      	ldr	r2, [pc, #96]	; (8000e78 <SCH_Delete_Task+0x9c>)
 8000e18:	6013      	str	r3, [r2, #0]
 8000e1a:	e016      	b.n	8000e4a <SCH_Delete_Task+0x6e>
			}
			else if (temp->next == NULL){ //delete tail
 8000e1c:	68fb      	ldr	r3, [r7, #12]
 8000e1e:	68db      	ldr	r3, [r3, #12]
 8000e20:	2b00      	cmp	r3, #0
 8000e22:	d108      	bne.n	8000e36 <SCH_Delete_Task+0x5a>
				temp->prev->next = NULL;
 8000e24:	68fb      	ldr	r3, [r7, #12]
 8000e26:	691b      	ldr	r3, [r3, #16]
 8000e28:	2200      	movs	r2, #0
 8000e2a:	60da      	str	r2, [r3, #12]
				taskList.tail = temp->prev;
 8000e2c:	68fb      	ldr	r3, [r7, #12]
 8000e2e:	691b      	ldr	r3, [r3, #16]
 8000e30:	4a11      	ldr	r2, [pc, #68]	; (8000e78 <SCH_Delete_Task+0x9c>)
 8000e32:	6053      	str	r3, [r2, #4]
 8000e34:	e009      	b.n	8000e4a <SCH_Delete_Task+0x6e>
			}
			else{
				temp->prev->next = temp->next;
 8000e36:	68fb      	ldr	r3, [r7, #12]
 8000e38:	691b      	ldr	r3, [r3, #16]
 8000e3a:	68fa      	ldr	r2, [r7, #12]
 8000e3c:	68d2      	ldr	r2, [r2, #12]
 8000e3e:	60da      	str	r2, [r3, #12]
				temp->next->prev = temp->prev;
 8000e40:	68fb      	ldr	r3, [r7, #12]
 8000e42:	68db      	ldr	r3, [r3, #12]
 8000e44:	68fa      	ldr	r2, [r7, #12]
 8000e46:	6912      	ldr	r2, [r2, #16]
 8000e48:	611a      	str	r2, [r3, #16]
			}
			taskList.numTask--;
 8000e4a:	4b0b      	ldr	r3, [pc, #44]	; (8000e78 <SCH_Delete_Task+0x9c>)
 8000e4c:	7a1b      	ldrb	r3, [r3, #8]
 8000e4e:	3b01      	subs	r3, #1
 8000e50:	b2da      	uxtb	r2, r3
 8000e52:	4b09      	ldr	r3, [pc, #36]	; (8000e78 <SCH_Delete_Task+0x9c>)
 8000e54:	721a      	strb	r2, [r3, #8]
			free(temp);
 8000e56:	68f8      	ldr	r0, [r7, #12]
 8000e58:	f001 fcea 	bl	8002830 <free>
			return 1;
 8000e5c:	2301      	movs	r3, #1
 8000e5e:	e006      	b.n	8000e6e <SCH_Delete_Task+0x92>
		}
		temp = temp->next;
 8000e60:	68fb      	ldr	r3, [r7, #12]
 8000e62:	68db      	ldr	r3, [r3, #12]
 8000e64:	60fb      	str	r3, [r7, #12]
	while(temp != 0){
 8000e66:	68fb      	ldr	r3, [r7, #12]
 8000e68:	2b00      	cmp	r3, #0
 8000e6a:	d1c5      	bne.n	8000df8 <SCH_Delete_Task+0x1c>
	}
	return 0;
 8000e6c:	2300      	movs	r3, #0
}
 8000e6e:	4618      	mov	r0, r3
 8000e70:	3710      	adds	r7, #16
 8000e72:	46bd      	mov	sp, r7
 8000e74:	bd80      	pop	{r7, pc}
 8000e76:	bf00      	nop
 8000e78:	2000094c 	.word	0x2000094c

08000e7c <SCH_Is_Task_Exist>:

uint8_t SCH_Is_Task_Exist(void (*function)()){
 8000e7c:	b480      	push	{r7}
 8000e7e:	b085      	sub	sp, #20
 8000e80:	af00      	add	r7, sp, #0
 8000e82:	6078      	str	r0, [r7, #4]
	if(taskList.numTask == 0) return 0;
 8000e84:	4b0e      	ldr	r3, [pc, #56]	; (8000ec0 <SCH_Is_Task_Exist+0x44>)
 8000e86:	7a1b      	ldrb	r3, [r3, #8]
 8000e88:	2b00      	cmp	r3, #0
 8000e8a:	d101      	bne.n	8000e90 <SCH_Is_Task_Exist+0x14>
 8000e8c:	2300      	movs	r3, #0
 8000e8e:	e011      	b.n	8000eb4 <SCH_Is_Task_Exist+0x38>
	sTask * temp = taskList.head;
 8000e90:	4b0b      	ldr	r3, [pc, #44]	; (8000ec0 <SCH_Is_Task_Exist+0x44>)
 8000e92:	681b      	ldr	r3, [r3, #0]
 8000e94:	60fb      	str	r3, [r7, #12]
	while(temp != NULL){
 8000e96:	e009      	b.n	8000eac <SCH_Is_Task_Exist+0x30>
		if(temp->pTask == function)
 8000e98:	68fb      	ldr	r3, [r7, #12]
 8000e9a:	681b      	ldr	r3, [r3, #0]
 8000e9c:	687a      	ldr	r2, [r7, #4]
 8000e9e:	429a      	cmp	r2, r3
 8000ea0:	d101      	bne.n	8000ea6 <SCH_Is_Task_Exist+0x2a>
			return 1;
 8000ea2:	2301      	movs	r3, #1
 8000ea4:	e006      	b.n	8000eb4 <SCH_Is_Task_Exist+0x38>
		temp = temp->next;
 8000ea6:	68fb      	ldr	r3, [r7, #12]
 8000ea8:	68db      	ldr	r3, [r3, #12]
 8000eaa:	60fb      	str	r3, [r7, #12]
	while(temp != NULL){
 8000eac:	68fb      	ldr	r3, [r7, #12]
 8000eae:	2b00      	cmp	r3, #0
 8000eb0:	d1f2      	bne.n	8000e98 <SCH_Is_Task_Exist+0x1c>
	}
	return 0;
 8000eb2:	2300      	movs	r3, #0
}
 8000eb4:	4618      	mov	r0, r3
 8000eb6:	3714      	adds	r7, #20
 8000eb8:	46bd      	mov	sp, r7
 8000eba:	bc80      	pop	{r7}
 8000ebc:	4770      	bx	lr
 8000ebe:	bf00      	nop
 8000ec0:	2000094c 	.word	0x2000094c

08000ec4 <HAL_MspInit>:
/* USER CODE END 0 */
/**
  * Initializes the Global MSP.
  */
void HAL_MspInit(void)
{
 8000ec4:	b480      	push	{r7}
 8000ec6:	b085      	sub	sp, #20
 8000ec8:	af00      	add	r7, sp, #0
  /* USER CODE BEGIN MspInit 0 */

  /* USER CODE END MspInit 0 */

  __HAL_RCC_AFIO_CLK_ENABLE();
 8000eca:	4b15      	ldr	r3, [pc, #84]	; (8000f20 <HAL_MspInit+0x5c>)
 8000ecc:	699b      	ldr	r3, [r3, #24]
 8000ece:	4a14      	ldr	r2, [pc, #80]	; (8000f20 <HAL_MspInit+0x5c>)
 8000ed0:	f043 0301 	orr.w	r3, r3, #1
 8000ed4:	6193      	str	r3, [r2, #24]
 8000ed6:	4b12      	ldr	r3, [pc, #72]	; (8000f20 <HAL_MspInit+0x5c>)
 8000ed8:	699b      	ldr	r3, [r3, #24]
 8000eda:	f003 0301 	and.w	r3, r3, #1
 8000ede:	60bb      	str	r3, [r7, #8]
 8000ee0:	68bb      	ldr	r3, [r7, #8]
  __HAL_RCC_PWR_CLK_ENABLE();
 8000ee2:	4b0f      	ldr	r3, [pc, #60]	; (8000f20 <HAL_MspInit+0x5c>)
 8000ee4:	69db      	ldr	r3, [r3, #28]
 8000ee6:	4a0e      	ldr	r2, [pc, #56]	; (8000f20 <HAL_MspInit+0x5c>)
 8000ee8:	f043 5380 	orr.w	r3, r3, #268435456	; 0x10000000
 8000eec:	61d3      	str	r3, [r2, #28]
 8000eee:	4b0c      	ldr	r3, [pc, #48]	; (8000f20 <HAL_MspInit+0x5c>)
 8000ef0:	69db      	ldr	r3, [r3, #28]
 8000ef2:	f003 5380 	and.w	r3, r3, #268435456	; 0x10000000
 8000ef6:	607b      	str	r3, [r7, #4]
 8000ef8:	687b      	ldr	r3, [r7, #4]

  /* System interrupt init*/

  /** DISABLE: JTAG-DP Disabled and SW-DP Disabled
  */
  __HAL_AFIO_REMAP_SWJ_DISABLE();
 8000efa:	4b0a      	ldr	r3, [pc, #40]	; (8000f24 <HAL_MspInit+0x60>)
 8000efc:	685b      	ldr	r3, [r3, #4]
 8000efe:	60fb      	str	r3, [r7, #12]
 8000f00:	68fb      	ldr	r3, [r7, #12]
 8000f02:	f023 63e0 	bic.w	r3, r3, #117440512	; 0x7000000
 8000f06:	60fb      	str	r3, [r7, #12]
 8000f08:	68fb      	ldr	r3, [r7, #12]
 8000f0a:	f043 6380 	orr.w	r3, r3, #67108864	; 0x4000000
 8000f0e:	60fb      	str	r3, [r7, #12]
 8000f10:	4a04      	ldr	r2, [pc, #16]	; (8000f24 <HAL_MspInit+0x60>)
 8000f12:	68fb      	ldr	r3, [r7, #12]
 8000f14:	6053      	str	r3, [r2, #4]

  /* USER CODE BEGIN MspInit 1 */

  /* USER CODE END MspInit 1 */
}
 8000f16:	bf00      	nop
 8000f18:	3714      	adds	r7, #20
 8000f1a:	46bd      	mov	sp, r7
 8000f1c:	bc80      	pop	{r7}
 8000f1e:	4770      	bx	lr
 8000f20:	40021000 	.word	0x40021000
 8000f24:	40010000 	.word	0x40010000

08000f28 <HAL_TIM_Base_MspInit>:
* This function configures the hardware resources used in this example
* @param htim_base: TIM_Base handle pointer
* @retval None
*/
void HAL_TIM_Base_MspInit(TIM_HandleTypeDef* htim_base)
{
 8000f28:	b580      	push	{r7, lr}
 8000f2a:	b084      	sub	sp, #16
 8000f2c:	af00      	add	r7, sp, #0
 8000f2e:	6078      	str	r0, [r7, #4]
  if(htim_base->Instance==TIM2)
 8000f30:	687b      	ldr	r3, [r7, #4]
 8000f32:	681b      	ldr	r3, [r3, #0]
 8000f34:	f1b3 4f80 	cmp.w	r3, #1073741824	; 0x40000000
 8000f38:	d113      	bne.n	8000f62 <HAL_TIM_Base_MspInit+0x3a>
  {
  /* USER CODE BEGIN TIM2_MspInit 0 */

  /* USER CODE END TIM2_MspInit 0 */
    /* Peripheral clock enable */
    __HAL_RCC_TIM2_CLK_ENABLE();
 8000f3a:	4b0c      	ldr	r3, [pc, #48]	; (8000f6c <HAL_TIM_Base_MspInit+0x44>)
 8000f3c:	69db      	ldr	r3, [r3, #28]
 8000f3e:	4a0b      	ldr	r2, [pc, #44]	; (8000f6c <HAL_TIM_Base_MspInit+0x44>)
 8000f40:	f043 0301 	orr.w	r3, r3, #1
 8000f44:	61d3      	str	r3, [r2, #28]
 8000f46:	4b09      	ldr	r3, [pc, #36]	; (8000f6c <HAL_TIM_Base_MspInit+0x44>)
 8000f48:	69db      	ldr	r3, [r3, #28]
 8000f4a:	f003 0301 	and.w	r3, r3, #1
 8000f4e:	60fb      	str	r3, [r7, #12]
 8000f50:	68fb      	ldr	r3, [r7, #12]
    /* TIM2 interrupt Init */
    HAL_NVIC_SetPriority(TIM2_IRQn, 0, 0);
 8000f52:	2200      	movs	r2, #0
 8000f54:	2100      	movs	r1, #0
 8000f56:	201c      	movs	r0, #28
 8000f58:	f000 fa87 	bl	800146a <HAL_NVIC_SetPriority>
    HAL_NVIC_EnableIRQ(TIM2_IRQn);
 8000f5c:	201c      	movs	r0, #28
 8000f5e:	f000 faa0 	bl	80014a2 <HAL_NVIC_EnableIRQ>
  /* USER CODE BEGIN TIM2_MspInit 1 */

  /* USER CODE END TIM2_MspInit 1 */
  }

}
 8000f62:	bf00      	nop
 8000f64:	3710      	adds	r7, #16
 8000f66:	46bd      	mov	sp, r7
 8000f68:	bd80      	pop	{r7, pc}
 8000f6a:	bf00      	nop
 8000f6c:	40021000 	.word	0x40021000

08000f70 <NMI_Handler>:
/******************************************************************************/
/**
  * @brief This function handles Non maskable interrupt.
  */
void NMI_Handler(void)
{
 8000f70:	b480      	push	{r7}
 8000f72:	af00      	add	r7, sp, #0
  /* USER CODE BEGIN NonMaskableInt_IRQn 0 */

  /* USER CODE END NonMaskableInt_IRQn 0 */
  /* USER CODE BEGIN NonMaskableInt_IRQn 1 */
  while (1)
 8000f74:	e7fe      	b.n	8000f74 <NMI_Handler+0x4>

08000f76 <HardFault_Handler>:

/**
  * @brief This function handles Hard fault interrupt.
  */
void HardFault_Handler(void)
{
 8000f76:	b480      	push	{r7}
 8000f78:	af00      	add	r7, sp, #0
  /* USER CODE BEGIN HardFault_IRQn 0 */

  /* USER CODE END HardFault_IRQn 0 */
  while (1)
 8000f7a:	e7fe      	b.n	8000f7a <HardFault_Handler+0x4>

08000f7c <MemManage_Handler>:

/**
  * @brief This function handles Memory management fault.
  */
void MemManage_Handler(void)
{
 8000f7c:	b480      	push	{r7}
 8000f7e:	af00      	add	r7, sp, #0
  /* USER CODE BEGIN MemoryManagement_IRQn 0 */

  /* USER CODE END MemoryManagement_IRQn 0 */
  while (1)
 8000f80:	e7fe      	b.n	8000f80 <MemManage_Handler+0x4>

08000f82 <BusFault_Handler>:

/**
  * @brief This function handles Prefetch fault, memory access fault.
  */
void BusFault_Handler(void)
{
 8000f82:	b480      	push	{r7}
 8000f84:	af00      	add	r7, sp, #0
  /* USER CODE BEGIN BusFault_IRQn 0 */

  /* USER CODE END BusFault_IRQn 0 */
  while (1)
 8000f86:	e7fe      	b.n	8000f86 <BusFault_Handler+0x4>

08000f88 <UsageFault_Handler>:

/**
  * @brief This function handles Undefined instruction or illegal state.
  */
void UsageFault_Handler(void)
{
 8000f88:	b480      	push	{r7}
 8000f8a:	af00      	add	r7, sp, #0
  /* USER CODE BEGIN UsageFault_IRQn 0 */

  /* USER CODE END UsageFault_IRQn 0 */
  while (1)
 8000f8c:	e7fe      	b.n	8000f8c <UsageFault_Handler+0x4>

08000f8e <SVC_Handler>:

/**
  * @brief This function handles System service call via SWI instruction.
  */
void SVC_Handler(void)
{
 8000f8e:	b480      	push	{r7}
 8000f90:	af00      	add	r7, sp, #0

  /* USER CODE END SVCall_IRQn 0 */
  /* USER CODE BEGIN SVCall_IRQn 1 */

  /* USER CODE END SVCall_IRQn 1 */
}
 8000f92:	bf00      	nop
 8000f94:	46bd      	mov	sp, r7
 8000f96:	bc80      	pop	{r7}
 8000f98:	4770      	bx	lr

08000f9a <DebugMon_Handler>:

/**
  * @brief This function handles Debug monitor.
  */
void DebugMon_Handler(void)
{
 8000f9a:	b480      	push	{r7}
 8000f9c:	af00      	add	r7, sp, #0

  /* USER CODE END DebugMonitor_IRQn 0 */
  /* USER CODE BEGIN DebugMonitor_IRQn 1 */

  /* USER CODE END DebugMonitor_IRQn 1 */
}
 8000f9e:	bf00      	nop
 8000fa0:	46bd      	mov	sp, r7
 8000fa2:	bc80      	pop	{r7}
 8000fa4:	4770      	bx	lr

08000fa6 <PendSV_Handler>:

/**
  * @brief This function handles Pendable request for system service.
  */
void PendSV_Handler(void)
{
 8000fa6:	b480      	push	{r7}
 8000fa8:	af00      	add	r7, sp, #0

  /* USER CODE END PendSV_IRQn 0 */
  /* USER CODE BEGIN PendSV_IRQn 1 */

  /* USER CODE END PendSV_IRQn 1 */
}
 8000faa:	bf00      	nop
 8000fac:	46bd      	mov	sp, r7
 8000fae:	bc80      	pop	{r7}
 8000fb0:	4770      	bx	lr

08000fb2 <SysTick_Handler>:

/**
  * @brief This function handles System tick timer.
  */
void SysTick_Handler(void)
{
 8000fb2:	b580      	push	{r7, lr}
 8000fb4:	af00      	add	r7, sp, #0
  /* USER CODE BEGIN SysTick_IRQn 0 */

  /* USER CODE END SysTick_IRQn 0 */
  HAL_IncTick();
 8000fb6:	f000 f965 	bl	8001284 <HAL_IncTick>
  /* USER CODE BEGIN SysTick_IRQn 1 */

  /* USER CODE END SysTick_IRQn 1 */
}
 8000fba:	bf00      	nop
 8000fbc:	bd80      	pop	{r7, pc}
	...

08000fc0 <TIM2_IRQHandler>:

/**
  * @brief This function handles TIM2 global interrupt.
  */
void TIM2_IRQHandler(void)
{
 8000fc0:	b580      	push	{r7, lr}
 8000fc2:	af00      	add	r7, sp, #0
  /* USER CODE BEGIN TIM2_IRQn 0 */

  /* USER CODE END TIM2_IRQn 0 */
  HAL_TIM_IRQHandler(&htim2);
 8000fc4:	4802      	ldr	r0, [pc, #8]	; (8000fd0 <TIM2_IRQHandler+0x10>)
 8000fc6:	f001 f8c1 	bl	800214c <HAL_TIM_IRQHandler>
  /* USER CODE BEGIN TIM2_IRQn 1 */

  /* USER CODE END TIM2_IRQn 1 */
}
 8000fca:	bf00      	nop
 8000fcc:	bd80      	pop	{r7, pc}
 8000fce:	bf00      	nop
 8000fd0:	20000904 	.word	0x20000904

08000fd4 <_sbrk>:
 *
 * @param incr Memory size
 * @return Pointer to allocated memory
 */
void *_sbrk(ptrdiff_t incr)
{
 8000fd4:	b580      	push	{r7, lr}
 8000fd6:	b086      	sub	sp, #24
 8000fd8:	af00      	add	r7, sp, #0
 8000fda:	6078      	str	r0, [r7, #4]
  extern uint8_t _end; /* Symbol defined in the linker script */
  extern uint8_t _estack; /* Symbol defined in the linker script */
  extern uint32_t _Min_Stack_Size; /* Symbol defined in the linker script */
  const uint32_t stack_limit = (uint32_t)&_estack - (uint32_t)&_Min_Stack_Size;
 8000fdc:	4a14      	ldr	r2, [pc, #80]	; (8001030 <_sbrk+0x5c>)
 8000fde:	4b15      	ldr	r3, [pc, #84]	; (8001034 <_sbrk+0x60>)
 8000fe0:	1ad3      	subs	r3, r2, r3
 8000fe2:	617b      	str	r3, [r7, #20]
  const uint8_t *max_heap = (uint8_t *)stack_limit;
 8000fe4:	697b      	ldr	r3, [r7, #20]
 8000fe6:	613b      	str	r3, [r7, #16]
  uint8_t *prev_heap_end;

  /* Initialize heap end at first call */
  if (NULL == __sbrk_heap_end)
 8000fe8:	4b13      	ldr	r3, [pc, #76]	; (8001038 <_sbrk+0x64>)
 8000fea:	681b      	ldr	r3, [r3, #0]
 8000fec:	2b00      	cmp	r3, #0
 8000fee:	d102      	bne.n	8000ff6 <_sbrk+0x22>
  {
    __sbrk_heap_end = &_end;
 8000ff0:	4b11      	ldr	r3, [pc, #68]	; (8001038 <_sbrk+0x64>)
 8000ff2:	4a12      	ldr	r2, [pc, #72]	; (800103c <_sbrk+0x68>)
 8000ff4:	601a      	str	r2, [r3, #0]
  }

  /* Protect heap from growing into the reserved MSP stack */
  if (__sbrk_heap_end + incr > max_heap)
 8000ff6:	4b10      	ldr	r3, [pc, #64]	; (8001038 <_sbrk+0x64>)
 8000ff8:	681a      	ldr	r2, [r3, #0]
 8000ffa:	687b      	ldr	r3, [r7, #4]
 8000ffc:	4413      	add	r3, r2
 8000ffe:	693a      	ldr	r2, [r7, #16]
 8001000:	429a      	cmp	r2, r3
 8001002:	d207      	bcs.n	8001014 <_sbrk+0x40>
  {
    errno = ENOMEM;
 8001004:	f001 fbe2 	bl	80027cc <__errno>
 8001008:	4603      	mov	r3, r0
 800100a:	220c      	movs	r2, #12
 800100c:	601a      	str	r2, [r3, #0]
    return (void *)-1;
 800100e:	f04f 33ff 	mov.w	r3, #4294967295
 8001012:	e009      	b.n	8001028 <_sbrk+0x54>
  }

  prev_heap_end = __sbrk_heap_end;
 8001014:	4b08      	ldr	r3, [pc, #32]	; (8001038 <_sbrk+0x64>)
 8001016:	681b      	ldr	r3, [r3, #0]
 8001018:	60fb      	str	r3, [r7, #12]
  __sbrk_heap_end += incr;
 800101a:	4b07      	ldr	r3, [pc, #28]	; (8001038 <_sbrk+0x64>)
 800101c:	681a      	ldr	r2, [r3, #0]
 800101e:	687b      	ldr	r3, [r7, #4]
 8001020:	4413      	add	r3, r2
 8001022:	4a05      	ldr	r2, [pc, #20]	; (8001038 <_sbrk+0x64>)
 8001024:	6013      	str	r3, [r2, #0]

  return (void *)prev_heap_end;
 8001026:	68fb      	ldr	r3, [r7, #12]
}
 8001028:	4618      	mov	r0, r3
 800102a:	3718      	adds	r7, #24
 800102c:	46bd      	mov	sp, r7
 800102e:	bd80      	pop	{r7, pc}
 8001030:	20002800 	.word	0x20002800
 8001034:	00000400 	.word	0x00000400
 8001038:	200008cc 	.word	0x200008cc
 800103c:	20000978 	.word	0x20000978

08001040 <SystemInit>:
  * @note   This function should be used only after reset.
  * @param  None
  * @retval None
  */
void SystemInit (void)
{
 8001040:	b480      	push	{r7}
 8001042:	af00      	add	r7, sp, #0

  /* Configure the Vector Table location -------------------------------------*/
#if defined(USER_VECT_TAB_ADDRESS)
  SCB->VTOR = VECT_TAB_BASE_ADDRESS | VECT_TAB_OFFSET; /* Vector Table Relocation in Internal SRAM. */
#endif /* USER_VECT_TAB_ADDRESS */
}
 8001044:	bf00      	nop
 8001046:	46bd      	mov	sp, r7
 8001048:	bc80      	pop	{r7}
 800104a:	4770      	bx	lr

0800104c <setTrafficLightDefault>:
		BIT11_Pin, BIT12_Pin, BIT13_Pin, BIT14_Pin, BIT15_Pin};
uint16_t BIT_A[9] = {BIT0_Pin, BIT1_Pin, BIT2_Pin, BIT3_Pin, BIT4_Pin,
                     BIT5_Pin, BIT6_Pin, BIT7_Pin, BIT8_Pin};
uint16_t BIT_B[7] = {BIT9_Pin, BIT10_Pin, BIT11_Pin, BIT12_Pin,
                     BIT13_Pin, BIT14_Pin, BIT15_Pin};
void setTrafficLightDefault(int lane){
 800104c:	b580      	push	{r7, lr}
 800104e:	b082      	sub	sp, #8
 8001050:	af00      	add	r7, sp, #0
 8001052:	6078      	str	r0, [r7, #4]
	HAL_GPIO_WritePin(GPIOA, REDLIGHT[lane], SET);
 8001054:	4a0f      	ldr	r2, [pc, #60]	; (8001094 <setTrafficLightDefault+0x48>)
 8001056:	687b      	ldr	r3, [r7, #4]
 8001058:	f832 3013 	ldrh.w	r3, [r2, r3, lsl #1]
 800105c:	2201      	movs	r2, #1
 800105e:	4619      	mov	r1, r3
 8001060:	480d      	ldr	r0, [pc, #52]	; (8001098 <setTrafficLightDefault+0x4c>)
 8001062:	f000 fbca 	bl	80017fa <HAL_GPIO_WritePin>
	HAL_GPIO_WritePin(GPIOA, GREENLIGHT[lane], SET);
 8001066:	4a0d      	ldr	r2, [pc, #52]	; (800109c <setTrafficLightDefault+0x50>)
 8001068:	687b      	ldr	r3, [r7, #4]
 800106a:	f832 3013 	ldrh.w	r3, [r2, r3, lsl #1]
 800106e:	2201      	movs	r2, #1
 8001070:	4619      	mov	r1, r3
 8001072:	4809      	ldr	r0, [pc, #36]	; (8001098 <setTrafficLightDefault+0x4c>)
 8001074:	f000 fbc1 	bl	80017fa <HAL_GPIO_WritePin>
	HAL_GPIO_WritePin(GPIOA, AMBERLIGHT[lane], SET);
 8001078:	4a09      	ldr	r2, [pc, #36]	; (80010a0 <setTrafficLightDefault+0x54>)
 800107a:	687b      	ldr	r3, [r7, #4]
 800107c:	f832 3013 	ldrh.w	r3, [r2, r3, lsl #1]
 8001080:	2201      	movs	r2, #1
 8001082:	4619      	mov	r1, r3
 8001084:	4804      	ldr	r0, [pc, #16]	; (8001098 <setTrafficLightDefault+0x4c>)
 8001086:	f000 fbb8 	bl	80017fa <HAL_GPIO_WritePin>
}
 800108a:	bf00      	nop
 800108c:	3708      	adds	r7, #8
 800108e:	46bd      	mov	sp, r7
 8001090:	bd80      	pop	{r7, pc}
 8001092:	bf00      	nop
 8001094:	20000040 	.word	0x20000040
 8001098:	40010800 	.word	0x40010800
 800109c:	20000044 	.word	0x20000044
 80010a0:	20000048 	.word	0x20000048

080010a4 <setTrafficLightRed>:
void setTrafficLightRed(int lane){
 80010a4:	b580      	push	{r7, lr}
 80010a6:	b082      	sub	sp, #8
 80010a8:	af00      	add	r7, sp, #0
 80010aa:	6078      	str	r0, [r7, #4]
	HAL_GPIO_WritePin(GPIOA, REDLIGHT[lane], RESET);
 80010ac:	4a0f      	ldr	r2, [pc, #60]	; (80010ec <setTrafficLightRed+0x48>)
 80010ae:	687b      	ldr	r3, [r7, #4]
 80010b0:	f832 3013 	ldrh.w	r3, [r2, r3, lsl #1]
 80010b4:	2200      	movs	r2, #0
 80010b6:	4619      	mov	r1, r3
 80010b8:	480d      	ldr	r0, [pc, #52]	; (80010f0 <setTrafficLightRed+0x4c>)
 80010ba:	f000 fb9e 	bl	80017fa <HAL_GPIO_WritePin>
	HAL_GPIO_WritePin(GPIOA, GREENLIGHT[lane], SET);
 80010be:	4a0d      	ldr	r2, [pc, #52]	; (80010f4 <setTrafficLightRed+0x50>)
 80010c0:	687b      	ldr	r3, [r7, #4]
 80010c2:	f832 3013 	ldrh.w	r3, [r2, r3, lsl #1]
 80010c6:	2201      	movs	r2, #1
 80010c8:	4619      	mov	r1, r3
 80010ca:	4809      	ldr	r0, [pc, #36]	; (80010f0 <setTrafficLightRed+0x4c>)
 80010cc:	f000 fb95 	bl	80017fa <HAL_GPIO_WritePin>
	HAL_GPIO_WritePin(GPIOA, AMBERLIGHT[lane], SET);
 80010d0:	4a09      	ldr	r2, [pc, #36]	; (80010f8 <setTrafficLightRed+0x54>)
 80010d2:	687b      	ldr	r3, [r7, #4]
 80010d4:	f832 3013 	ldrh.w	r3, [r2, r3, lsl #1]
 80010d8:	2201      	movs	r2, #1
 80010da:	4619      	mov	r1, r3
 80010dc:	4804      	ldr	r0, [pc, #16]	; (80010f0 <setTrafficLightRed+0x4c>)
 80010de:	f000 fb8c 	bl	80017fa <HAL_GPIO_WritePin>
}
 80010e2:	bf00      	nop
 80010e4:	3708      	adds	r7, #8
 80010e6:	46bd      	mov	sp, r7
 80010e8:	bd80      	pop	{r7, pc}
 80010ea:	bf00      	nop
 80010ec:	20000040 	.word	0x20000040
 80010f0:	40010800 	.word	0x40010800
 80010f4:	20000044 	.word	0x20000044
 80010f8:	20000048 	.word	0x20000048

080010fc <setTrafficLightGreen>:
void setTrafficLightGreen(int lane){
 80010fc:	b580      	push	{r7, lr}
 80010fe:	b082      	sub	sp, #8
 8001100:	af00      	add	r7, sp, #0
 8001102:	6078      	str	r0, [r7, #4]
	HAL_GPIO_WritePin(GPIOA, REDLIGHT[lane], SET);
 8001104:	4a0f      	ldr	r2, [pc, #60]	; (8001144 <setTrafficLightGreen+0x48>)
 8001106:	687b      	ldr	r3, [r7, #4]
 8001108:	f832 3013 	ldrh.w	r3, [r2, r3, lsl #1]
 800110c:	2201      	movs	r2, #1
 800110e:	4619      	mov	r1, r3
 8001110:	480d      	ldr	r0, [pc, #52]	; (8001148 <setTrafficLightGreen+0x4c>)
 8001112:	f000 fb72 	bl	80017fa <HAL_GPIO_WritePin>
	HAL_GPIO_WritePin(GPIOA, GREENLIGHT[lane], RESET);
 8001116:	4a0d      	ldr	r2, [pc, #52]	; (800114c <setTrafficLightGreen+0x50>)
 8001118:	687b      	ldr	r3, [r7, #4]
 800111a:	f832 3013 	ldrh.w	r3, [r2, r3, lsl #1]
 800111e:	2200      	movs	r2, #0
 8001120:	4619      	mov	r1, r3
 8001122:	4809      	ldr	r0, [pc, #36]	; (8001148 <setTrafficLightGreen+0x4c>)
 8001124:	f000 fb69 	bl	80017fa <HAL_GPIO_WritePin>
	HAL_GPIO_WritePin(GPIOA, AMBERLIGHT[lane], SET);
 8001128:	4a09      	ldr	r2, [pc, #36]	; (8001150 <setTrafficLightGreen+0x54>)
 800112a:	687b      	ldr	r3, [r7, #4]
 800112c:	f832 3013 	ldrh.w	r3, [r2, r3, lsl #1]
 8001130:	2201      	movs	r2, #1
 8001132:	4619      	mov	r1, r3
 8001134:	4804      	ldr	r0, [pc, #16]	; (8001148 <setTrafficLightGreen+0x4c>)
 8001136:	f000 fb60 	bl	80017fa <HAL_GPIO_WritePin>
}
 800113a:	bf00      	nop
 800113c:	3708      	adds	r7, #8
 800113e:	46bd      	mov	sp, r7
 8001140:	bd80      	pop	{r7, pc}
 8001142:	bf00      	nop
 8001144:	20000040 	.word	0x20000040
 8001148:	40010800 	.word	0x40010800
 800114c:	20000044 	.word	0x20000044
 8001150:	20000048 	.word	0x20000048

08001154 <setTrafficLightAmber>:
void setTrafficLightAmber(int lane){
 8001154:	b580      	push	{r7, lr}
 8001156:	b082      	sub	sp, #8
 8001158:	af00      	add	r7, sp, #0
 800115a:	6078      	str	r0, [r7, #4]
	HAL_GPIO_WritePin(GPIOA, REDLIGHT[lane], SET);
 800115c:	4a0f      	ldr	r2, [pc, #60]	; (800119c <setTrafficLightAmber+0x48>)
 800115e:	687b      	ldr	r3, [r7, #4]
 8001160:	f832 3013 	ldrh.w	r3, [r2, r3, lsl #1]
 8001164:	2201      	movs	r2, #1
 8001166:	4619      	mov	r1, r3
 8001168:	480d      	ldr	r0, [pc, #52]	; (80011a0 <setTrafficLightAmber+0x4c>)
 800116a:	f000 fb46 	bl	80017fa <HAL_GPIO_WritePin>
	HAL_GPIO_WritePin(GPIOA, GREENLIGHT[lane], SET);
 800116e:	4a0d      	ldr	r2, [pc, #52]	; (80011a4 <setTrafficLightAmber+0x50>)
 8001170:	687b      	ldr	r3, [r7, #4]
 8001172:	f832 3013 	ldrh.w	r3, [r2, r3, lsl #1]
 8001176:	2201      	movs	r2, #1
 8001178:	4619      	mov	r1, r3
 800117a:	4809      	ldr	r0, [pc, #36]	; (80011a0 <setTrafficLightAmber+0x4c>)
 800117c:	f000 fb3d 	bl	80017fa <HAL_GPIO_WritePin>
	HAL_GPIO_WritePin(GPIOA, AMBERLIGHT[lane], RESET);
 8001180:	4a09      	ldr	r2, [pc, #36]	; (80011a8 <setTrafficLightAmber+0x54>)
 8001182:	687b      	ldr	r3, [r7, #4]
 8001184:	f832 3013 	ldrh.w	r3, [r2, r3, lsl #1]
 8001188:	2200      	movs	r2, #0
 800118a:	4619      	mov	r1, r3
 800118c:	4804      	ldr	r0, [pc, #16]	; (80011a0 <setTrafficLightAmber+0x4c>)
 800118e:	f000 fb34 	bl	80017fa <HAL_GPIO_WritePin>
}
 8001192:	bf00      	nop
 8001194:	3708      	adds	r7, #8
 8001196:	46bd      	mov	sp, r7
 8001198:	bd80      	pop	{r7, pc}
 800119a:	bf00      	nop
 800119c:	20000040 	.word	0x20000040
 80011a0:	40010800 	.word	0x40010800
 80011a4:	20000044 	.word	0x20000044
 80011a8:	20000048 	.word	0x20000048

080011ac <Reset_Handler>:
  .weak Reset_Handler
  .type Reset_Handler, %function
Reset_Handler:

/* Call the clock system initialization function.*/
    bl  SystemInit
 80011ac:	f7ff ff48 	bl	8001040 <SystemInit>

/* Copy the data segment initializers from flash to SRAM */
  ldr r0, =_sdata
 80011b0:	480b      	ldr	r0, [pc, #44]	; (80011e0 <LoopFillZerobss+0xe>)
  ldr r1, =_edata
 80011b2:	490c      	ldr	r1, [pc, #48]	; (80011e4 <LoopFillZerobss+0x12>)
  ldr r2, =_sidata
 80011b4:	4a0c      	ldr	r2, [pc, #48]	; (80011e8 <LoopFillZerobss+0x16>)
  movs r3, #0
 80011b6:	2300      	movs	r3, #0
  b LoopCopyDataInit
 80011b8:	e002      	b.n	80011c0 <LoopCopyDataInit>

080011ba <CopyDataInit>:

CopyDataInit:
  ldr r4, [r2, r3]
 80011ba:	58d4      	ldr	r4, [r2, r3]
  str r4, [r0, r3]
 80011bc:	50c4      	str	r4, [r0, r3]
  adds r3, r3, #4
 80011be:	3304      	adds	r3, #4

080011c0 <LoopCopyDataInit>:

LoopCopyDataInit:
  adds r4, r0, r3
 80011c0:	18c4      	adds	r4, r0, r3
  cmp r4, r1
 80011c2:	428c      	cmp	r4, r1
  bcc CopyDataInit
 80011c4:	d3f9      	bcc.n	80011ba <CopyDataInit>
  
/* Zero fill the bss segment. */
  ldr r2, =_sbss
 80011c6:	4a09      	ldr	r2, [pc, #36]	; (80011ec <LoopFillZerobss+0x1a>)
  ldr r4, =_ebss
 80011c8:	4c09      	ldr	r4, [pc, #36]	; (80011f0 <LoopFillZerobss+0x1e>)
  movs r3, #0
 80011ca:	2300      	movs	r3, #0
  b LoopFillZerobss
 80011cc:	e001      	b.n	80011d2 <LoopFillZerobss>

080011ce <FillZerobss>:

FillZerobss:
  str  r3, [r2]
 80011ce:	6013      	str	r3, [r2, #0]
  adds r2, r2, #4
 80011d0:	3204      	adds	r2, #4

080011d2 <LoopFillZerobss>:

LoopFillZerobss:
  cmp r2, r4
 80011d2:	42a2      	cmp	r2, r4
  bcc FillZerobss
 80011d4:	d3fb      	bcc.n	80011ce <FillZerobss>

/* Call static constructors */
    bl __libc_init_array
 80011d6:	f001 faff 	bl	80027d8 <__libc_init_array>
/* Call the application's entry point.*/
  bl main
 80011da:	f7ff fba7 	bl	800092c <main>
  bx lr
 80011de:	4770      	bx	lr
  ldr r0, =_sdata
 80011e0:	20000000 	.word	0x20000000
  ldr r1, =_edata
 80011e4:	20000894 	.word	0x20000894
  ldr r2, =_sidata
 80011e8:	08003068 	.word	0x08003068
  ldr r2, =_sbss
 80011ec:	20000894 	.word	0x20000894
  ldr r4, =_ebss
 80011f0:	20000978 	.word	0x20000978

080011f4 <ADC1_2_IRQHandler>:
 * @retval : None
*/
    .section .text.Default_Handler,"ax",%progbits
Default_Handler:
Infinite_Loop:
  b Infinite_Loop
 80011f4:	e7fe      	b.n	80011f4 <ADC1_2_IRQHandler>
	...

080011f8 <HAL_Init>:
  *         need to ensure that the SysTick time base is always set to 1 millisecond
  *         to have correct HAL operation.
  * @retval HAL status
  */
HAL_StatusTypeDef HAL_Init(void)
{
 80011f8:	b580      	push	{r7, lr}
 80011fa:	af00      	add	r7, sp, #0
    defined(STM32F102x6) || defined(STM32F102xB) || \
    defined(STM32F103x6) || defined(STM32F103xB) || defined(STM32F103xE) || defined(STM32F103xG) || \
    defined(STM32F105xC) || defined(STM32F107xC)

  /* Prefetch buffer is not available on value line devices */
  __HAL_FLASH_PREFETCH_BUFFER_ENABLE();
 80011fc:	4b08      	ldr	r3, [pc, #32]	; (8001220 <HAL_Init+0x28>)
 80011fe:	681b      	ldr	r3, [r3, #0]
 8001200:	4a07      	ldr	r2, [pc, #28]	; (8001220 <HAL_Init+0x28>)
 8001202:	f043 0310 	orr.w	r3, r3, #16
 8001206:	6013      	str	r3, [r2, #0]
#endif
#endif /* PREFETCH_ENABLE */

  /* Set Interrupt Group Priority */
  HAL_NVIC_SetPriorityGrouping(NVIC_PRIORITYGROUP_4);
 8001208:	2003      	movs	r0, #3
 800120a:	f000 f923 	bl	8001454 <HAL_NVIC_SetPriorityGrouping>

  /* Use systick as time base source and configure 1ms tick (default clock after Reset is HSI) */
  HAL_InitTick(TICK_INT_PRIORITY);
 800120e:	200f      	movs	r0, #15
 8001210:	f000 f808 	bl	8001224 <HAL_InitTick>

  /* Init the low level hardware */
  HAL_MspInit();
 8001214:	f7ff fe56 	bl	8000ec4 <HAL_MspInit>

  /* Return function status */
  return HAL_OK;
 8001218:	2300      	movs	r3, #0
}
 800121a:	4618      	mov	r0, r3
 800121c:	bd80      	pop	{r7, pc}
 800121e:	bf00      	nop
 8001220:	40022000 	.word	0x40022000

08001224 <HAL_InitTick>:
  *       implementation  in user file.
  * @param TickPriority Tick interrupt priority.
  * @retval HAL status
  */
__weak HAL_StatusTypeDef HAL_InitTick(uint32_t TickPriority)
{
 8001224:	b580      	push	{r7, lr}
 8001226:	b082      	sub	sp, #8
 8001228:	af00      	add	r7, sp, #0
 800122a:	6078      	str	r0, [r7, #4]
  /* Configure the SysTick to have interrupt in 1ms time basis*/
  if (HAL_SYSTICK_Config(SystemCoreClock / (1000U / uwTickFreq)) > 0U)
 800122c:	4b12      	ldr	r3, [pc, #72]	; (8001278 <HAL_InitTick+0x54>)
 800122e:	681a      	ldr	r2, [r3, #0]
 8001230:	4b12      	ldr	r3, [pc, #72]	; (800127c <HAL_InitTick+0x58>)
 8001232:	781b      	ldrb	r3, [r3, #0]
 8001234:	4619      	mov	r1, r3
 8001236:	f44f 737a 	mov.w	r3, #1000	; 0x3e8
 800123a:	fbb3 f3f1 	udiv	r3, r3, r1
 800123e:	fbb2 f3f3 	udiv	r3, r2, r3
 8001242:	4618      	mov	r0, r3
 8001244:	f000 f93b 	bl	80014be <HAL_SYSTICK_Config>
 8001248:	4603      	mov	r3, r0
 800124a:	2b00      	cmp	r3, #0
 800124c:	d001      	beq.n	8001252 <HAL_InitTick+0x2e>
  {
    return HAL_ERROR;
 800124e:	2301      	movs	r3, #1
 8001250:	e00e      	b.n	8001270 <HAL_InitTick+0x4c>
  }

  /* Configure the SysTick IRQ priority */
  if (TickPriority < (1UL << __NVIC_PRIO_BITS))
 8001252:	687b      	ldr	r3, [r7, #4]
 8001254:	2b0f      	cmp	r3, #15
 8001256:	d80a      	bhi.n	800126e <HAL_InitTick+0x4a>
  {
    HAL_NVIC_SetPriority(SysTick_IRQn, TickPriority, 0U);
 8001258:	2200      	movs	r2, #0
 800125a:	6879      	ldr	r1, [r7, #4]
 800125c:	f04f 30ff 	mov.w	r0, #4294967295
 8001260:	f000 f903 	bl	800146a <HAL_NVIC_SetPriority>
    uwTickPrio = TickPriority;
 8001264:	4a06      	ldr	r2, [pc, #24]	; (8001280 <HAL_InitTick+0x5c>)
 8001266:	687b      	ldr	r3, [r7, #4]
 8001268:	6013      	str	r3, [r2, #0]
  {
    return HAL_ERROR;
  }

  /* Return function status */
  return HAL_OK;
 800126a:	2300      	movs	r3, #0
 800126c:	e000      	b.n	8001270 <HAL_InitTick+0x4c>
    return HAL_ERROR;
 800126e:	2301      	movs	r3, #1
}
 8001270:	4618      	mov	r0, r3
 8001272:	3708      	adds	r7, #8
 8001274:	46bd      	mov	sp, r7
 8001276:	bd80      	pop	{r7, pc}
 8001278:	20000018 	.word	0x20000018
 800127c:	20000050 	.word	0x20000050
 8001280:	2000004c 	.word	0x2000004c

08001284 <HAL_IncTick>:
  * @note This function is declared as __weak to be overwritten in case of other
  *      implementations in user file.
  * @retval None
  */
__weak void HAL_IncTick(void)
{
 8001284:	b480      	push	{r7}
 8001286:	af00      	add	r7, sp, #0
  uwTick += uwTickFreq;
 8001288:	4b05      	ldr	r3, [pc, #20]	; (80012a0 <HAL_IncTick+0x1c>)
 800128a:	781b      	ldrb	r3, [r3, #0]
 800128c:	461a      	mov	r2, r3
 800128e:	4b05      	ldr	r3, [pc, #20]	; (80012a4 <HAL_IncTick+0x20>)
 8001290:	681b      	ldr	r3, [r3, #0]
 8001292:	4413      	add	r3, r2
 8001294:	4a03      	ldr	r2, [pc, #12]	; (80012a4 <HAL_IncTick+0x20>)
 8001296:	6013      	str	r3, [r2, #0]
}
 8001298:	bf00      	nop
 800129a:	46bd      	mov	sp, r7
 800129c:	bc80      	pop	{r7}
 800129e:	4770      	bx	lr
 80012a0:	20000050 	.word	0x20000050
 80012a4:	20000964 	.word	0x20000964

080012a8 <HAL_GetTick>:
  * @note  This function is declared as __weak to be overwritten in case of other
  *       implementations in user file.
  * @retval tick value
  */
__weak uint32_t HAL_GetTick(void)
{
 80012a8:	b480      	push	{r7}
 80012aa:	af00      	add	r7, sp, #0
  return uwTick;
 80012ac:	4b02      	ldr	r3, [pc, #8]	; (80012b8 <HAL_GetTick+0x10>)
 80012ae:	681b      	ldr	r3, [r3, #0]
}
 80012b0:	4618      	mov	r0, r3
 80012b2:	46bd      	mov	sp, r7
 80012b4:	bc80      	pop	{r7}
 80012b6:	4770      	bx	lr
 80012b8:	20000964 	.word	0x20000964

080012bc <__NVIC_SetPriorityGrouping>:
           In case of a conflict between priority grouping and available
           priority bits (__NVIC_PRIO_BITS), the smallest possible priority group is set.
  \param [in]      PriorityGroup  Priority grouping field.
 */
__STATIC_INLINE void __NVIC_SetPriorityGrouping(uint32_t PriorityGroup)
{
 80012bc:	b480      	push	{r7}
 80012be:	b085      	sub	sp, #20
 80012c0:	af00      	add	r7, sp, #0
 80012c2:	6078      	str	r0, [r7, #4]
  uint32_t reg_value;
  uint32_t PriorityGroupTmp = (PriorityGroup & (uint32_t)0x07UL);             /* only values 0..7 are used          */
 80012c4:	687b      	ldr	r3, [r7, #4]
 80012c6:	f003 0307 	and.w	r3, r3, #7
 80012ca:	60fb      	str	r3, [r7, #12]

  reg_value  =  SCB->AIRCR;                                                   /* read old register configuration    */
 80012cc:	4b0c      	ldr	r3, [pc, #48]	; (8001300 <__NVIC_SetPriorityGrouping+0x44>)
 80012ce:	68db      	ldr	r3, [r3, #12]
 80012d0:	60bb      	str	r3, [r7, #8]
  reg_value &= ~((uint32_t)(SCB_AIRCR_VECTKEY_Msk | SCB_AIRCR_PRIGROUP_Msk)); /* clear bits to change               */
 80012d2:	68ba      	ldr	r2, [r7, #8]
 80012d4:	f64f 03ff 	movw	r3, #63743	; 0xf8ff
 80012d8:	4013      	ands	r3, r2
 80012da:	60bb      	str	r3, [r7, #8]
  reg_value  =  (reg_value                                   |
                ((uint32_t)0x5FAUL << SCB_AIRCR_VECTKEY_Pos) |
                (PriorityGroupTmp << SCB_AIRCR_PRIGROUP_Pos) );               /* Insert write key and priority group */
 80012dc:	68fb      	ldr	r3, [r7, #12]
 80012de:	021a      	lsls	r2, r3, #8
                ((uint32_t)0x5FAUL << SCB_AIRCR_VECTKEY_Pos) |
 80012e0:	68bb      	ldr	r3, [r7, #8]
 80012e2:	4313      	orrs	r3, r2
  reg_value  =  (reg_value                                   |
 80012e4:	f043 63bf 	orr.w	r3, r3, #100139008	; 0x5f80000
 80012e8:	f443 3300 	orr.w	r3, r3, #131072	; 0x20000
 80012ec:	60bb      	str	r3, [r7, #8]
  SCB->AIRCR =  reg_value;
 80012ee:	4a04      	ldr	r2, [pc, #16]	; (8001300 <__NVIC_SetPriorityGrouping+0x44>)
 80012f0:	68bb      	ldr	r3, [r7, #8]
 80012f2:	60d3      	str	r3, [r2, #12]
}
 80012f4:	bf00      	nop
 80012f6:	3714      	adds	r7, #20
 80012f8:	46bd      	mov	sp, r7
 80012fa:	bc80      	pop	{r7}
 80012fc:	4770      	bx	lr
 80012fe:	bf00      	nop
 8001300:	e000ed00 	.word	0xe000ed00

08001304 <__NVIC_GetPriorityGrouping>:
  \brief   Get Priority Grouping
  \details Reads the priority grouping field from the NVIC Interrupt Controller.
  \return                Priority grouping field (SCB->AIRCR [10:8] PRIGROUP field).
 */
__STATIC_INLINE uint32_t __NVIC_GetPriorityGrouping(void)
{
 8001304:	b480      	push	{r7}
 8001306:	af00      	add	r7, sp, #0
  return ((uint32_t)((SCB->AIRCR & SCB_AIRCR_PRIGROUP_Msk) >> SCB_AIRCR_PRIGROUP_Pos));
 8001308:	4b04      	ldr	r3, [pc, #16]	; (800131c <__NVIC_GetPriorityGrouping+0x18>)
 800130a:	68db      	ldr	r3, [r3, #12]
 800130c:	0a1b      	lsrs	r3, r3, #8
 800130e:	f003 0307 	and.w	r3, r3, #7
}
 8001312:	4618      	mov	r0, r3
 8001314:	46bd      	mov	sp, r7
 8001316:	bc80      	pop	{r7}
 8001318:	4770      	bx	lr
 800131a:	bf00      	nop
 800131c:	e000ed00 	.word	0xe000ed00

08001320 <__NVIC_EnableIRQ>:
  \details Enables a device specific interrupt in the NVIC interrupt controller.
  \param [in]      IRQn  Device specific interrupt number.
  \note    IRQn must not be negative.
 */
__STATIC_INLINE void __NVIC_EnableIRQ(IRQn_Type IRQn)
{
 8001320:	b480      	push	{r7}
 8001322:	b083      	sub	sp, #12
 8001324:	af00      	add	r7, sp, #0
 8001326:	4603      	mov	r3, r0
 8001328:	71fb      	strb	r3, [r7, #7]
  if ((int32_t)(IRQn) >= 0)
 800132a:	f997 3007 	ldrsb.w	r3, [r7, #7]
 800132e:	2b00      	cmp	r3, #0
 8001330:	db0b      	blt.n	800134a <__NVIC_EnableIRQ+0x2a>
  {
    NVIC->ISER[(((uint32_t)IRQn) >> 5UL)] = (uint32_t)(1UL << (((uint32_t)IRQn) & 0x1FUL));
 8001332:	79fb      	ldrb	r3, [r7, #7]
 8001334:	f003 021f 	and.w	r2, r3, #31
 8001338:	4906      	ldr	r1, [pc, #24]	; (8001354 <__NVIC_EnableIRQ+0x34>)
 800133a:	f997 3007 	ldrsb.w	r3, [r7, #7]
 800133e:	095b      	lsrs	r3, r3, #5
 8001340:	2001      	movs	r0, #1
 8001342:	fa00 f202 	lsl.w	r2, r0, r2
 8001346:	f841 2023 	str.w	r2, [r1, r3, lsl #2]
  }
}
 800134a:	bf00      	nop
 800134c:	370c      	adds	r7, #12
 800134e:	46bd      	mov	sp, r7
 8001350:	bc80      	pop	{r7}
 8001352:	4770      	bx	lr
 8001354:	e000e100 	.word	0xe000e100

08001358 <__NVIC_SetPriority>:
  \param [in]      IRQn  Interrupt number.
  \param [in]  priority  Priority to set.
  \note    The priority cannot be set for every processor exception.
 */
__STATIC_INLINE void __NVIC_SetPriority(IRQn_Type IRQn, uint32_t priority)
{
 8001358:	b480      	push	{r7}
 800135a:	b083      	sub	sp, #12
 800135c:	af00      	add	r7, sp, #0
 800135e:	4603      	mov	r3, r0
 8001360:	6039      	str	r1, [r7, #0]
 8001362:	71fb      	strb	r3, [r7, #7]
  if ((int32_t)(IRQn) >= 0)
 8001364:	f997 3007 	ldrsb.w	r3, [r7, #7]
 8001368:	2b00      	cmp	r3, #0
 800136a:	db0a      	blt.n	8001382 <__NVIC_SetPriority+0x2a>
  {
    NVIC->IP[((uint32_t)IRQn)]               = (uint8_t)((priority << (8U - __NVIC_PRIO_BITS)) & (uint32_t)0xFFUL);
 800136c:	683b      	ldr	r3, [r7, #0]
 800136e:	b2da      	uxtb	r2, r3
 8001370:	490c      	ldr	r1, [pc, #48]	; (80013a4 <__NVIC_SetPriority+0x4c>)
 8001372:	f997 3007 	ldrsb.w	r3, [r7, #7]
 8001376:	0112      	lsls	r2, r2, #4
 8001378:	b2d2      	uxtb	r2, r2
 800137a:	440b      	add	r3, r1
 800137c:	f883 2300 	strb.w	r2, [r3, #768]	; 0x300
  }
  else
  {
    SCB->SHP[(((uint32_t)IRQn) & 0xFUL)-4UL] = (uint8_t)((priority << (8U - __NVIC_PRIO_BITS)) & (uint32_t)0xFFUL);
  }
}
 8001380:	e00a      	b.n	8001398 <__NVIC_SetPriority+0x40>
    SCB->SHP[(((uint32_t)IRQn) & 0xFUL)-4UL] = (uint8_t)((priority << (8U - __NVIC_PRIO_BITS)) & (uint32_t)0xFFUL);
 8001382:	683b      	ldr	r3, [r7, #0]
 8001384:	b2da      	uxtb	r2, r3
 8001386:	4908      	ldr	r1, [pc, #32]	; (80013a8 <__NVIC_SetPriority+0x50>)
 8001388:	79fb      	ldrb	r3, [r7, #7]
 800138a:	f003 030f 	and.w	r3, r3, #15
 800138e:	3b04      	subs	r3, #4
 8001390:	0112      	lsls	r2, r2, #4
 8001392:	b2d2      	uxtb	r2, r2
 8001394:	440b      	add	r3, r1
 8001396:	761a      	strb	r2, [r3, #24]
}
 8001398:	bf00      	nop
 800139a:	370c      	adds	r7, #12
 800139c:	46bd      	mov	sp, r7
 800139e:	bc80      	pop	{r7}
 80013a0:	4770      	bx	lr
 80013a2:	bf00      	nop
 80013a4:	e000e100 	.word	0xe000e100
 80013a8:	e000ed00 	.word	0xe000ed00

080013ac <NVIC_EncodePriority>:
  \param [in]   PreemptPriority  Preemptive priority value (starting from 0).
  \param [in]       SubPriority  Subpriority value (starting from 0).
  \return                        Encoded priority. Value can be used in the function \ref NVIC_SetPriority().
 */
__STATIC_INLINE uint32_t NVIC_EncodePriority (uint32_t PriorityGroup, uint32_t PreemptPriority, uint32_t SubPriority)
{
 80013ac:	b480      	push	{r7}
 80013ae:	b089      	sub	sp, #36	; 0x24
 80013b0:	af00      	add	r7, sp, #0
 80013b2:	60f8      	str	r0, [r7, #12]
 80013b4:	60b9      	str	r1, [r7, #8]
 80013b6:	607a      	str	r2, [r7, #4]
  uint32_t PriorityGroupTmp = (PriorityGroup & (uint32_t)0x07UL);   /* only values 0..7 are used          */
 80013b8:	68fb      	ldr	r3, [r7, #12]
 80013ba:	f003 0307 	and.w	r3, r3, #7
 80013be:	61fb      	str	r3, [r7, #28]
  uint32_t PreemptPriorityBits;
  uint32_t SubPriorityBits;

  PreemptPriorityBits = ((7UL - PriorityGroupTmp) > (uint32_t)(__NVIC_PRIO_BITS)) ? (uint32_t)(__NVIC_PRIO_BITS) : (uint32_t)(7UL - PriorityGroupTmp);
 80013c0:	69fb      	ldr	r3, [r7, #28]
 80013c2:	f1c3 0307 	rsb	r3, r3, #7
 80013c6:	2b04      	cmp	r3, #4
 80013c8:	bf28      	it	cs
 80013ca:	2304      	movcs	r3, #4
 80013cc:	61bb      	str	r3, [r7, #24]
  SubPriorityBits     = ((PriorityGroupTmp + (uint32_t)(__NVIC_PRIO_BITS)) < (uint32_t)7UL) ? (uint32_t)0UL : (uint32_t)((PriorityGroupTmp - 7UL) + (uint32_t)(__NVIC_PRIO_BITS));
 80013ce:	69fb      	ldr	r3, [r7, #28]
 80013d0:	3304      	adds	r3, #4
 80013d2:	2b06      	cmp	r3, #6
 80013d4:	d902      	bls.n	80013dc <NVIC_EncodePriority+0x30>
 80013d6:	69fb      	ldr	r3, [r7, #28]
 80013d8:	3b03      	subs	r3, #3
 80013da:	e000      	b.n	80013de <NVIC_EncodePriority+0x32>
 80013dc:	2300      	movs	r3, #0
 80013de:	617b      	str	r3, [r7, #20]

  return (
           ((PreemptPriority & (uint32_t)((1UL << (PreemptPriorityBits)) - 1UL)) << SubPriorityBits) |
 80013e0:	f04f 32ff 	mov.w	r2, #4294967295
 80013e4:	69bb      	ldr	r3, [r7, #24]
 80013e6:	fa02 f303 	lsl.w	r3, r2, r3
 80013ea:	43da      	mvns	r2, r3
 80013ec:	68bb      	ldr	r3, [r7, #8]
 80013ee:	401a      	ands	r2, r3
 80013f0:	697b      	ldr	r3, [r7, #20]
 80013f2:	409a      	lsls	r2, r3
           ((SubPriority     & (uint32_t)((1UL << (SubPriorityBits    )) - 1UL)))
 80013f4:	f04f 31ff 	mov.w	r1, #4294967295
 80013f8:	697b      	ldr	r3, [r7, #20]
 80013fa:	fa01 f303 	lsl.w	r3, r1, r3
 80013fe:	43d9      	mvns	r1, r3
 8001400:	687b      	ldr	r3, [r7, #4]
 8001402:	400b      	ands	r3, r1
           ((PreemptPriority & (uint32_t)((1UL << (PreemptPriorityBits)) - 1UL)) << SubPriorityBits) |
 8001404:	4313      	orrs	r3, r2
         );
}
 8001406:	4618      	mov	r0, r3
 8001408:	3724      	adds	r7, #36	; 0x24
 800140a:	46bd      	mov	sp, r7
 800140c:	bc80      	pop	{r7}
 800140e:	4770      	bx	lr

08001410 <SysTick_Config>:
  \note    When the variable <b>__Vendor_SysTickConfig</b> is set to 1, then the
           function <b>SysTick_Config</b> is not included. In this case, the file <b><i>device</i>.h</b>
           must contain a vendor-specific implementation of this function.
 */
__STATIC_INLINE uint32_t SysTick_Config(uint32_t ticks)
{
 8001410:	b580      	push	{r7, lr}
 8001412:	b082      	sub	sp, #8
 8001414:	af00      	add	r7, sp, #0
 8001416:	6078      	str	r0, [r7, #4]
  if ((ticks - 1UL) > SysTick_LOAD_RELOAD_Msk)
 8001418:	687b      	ldr	r3, [r7, #4]
 800141a:	3b01      	subs	r3, #1
 800141c:	f1b3 7f80 	cmp.w	r3, #16777216	; 0x1000000
 8001420:	d301      	bcc.n	8001426 <SysTick_Config+0x16>
  {
    return (1UL);                                                   /* Reload value impossible */
 8001422:	2301      	movs	r3, #1
 8001424:	e00f      	b.n	8001446 <SysTick_Config+0x36>
  }

  SysTick->LOAD  = (uint32_t)(ticks - 1UL);                         /* set reload register */
 8001426:	4a0a      	ldr	r2, [pc, #40]	; (8001450 <SysTick_Config+0x40>)
 8001428:	687b      	ldr	r3, [r7, #4]
 800142a:	3b01      	subs	r3, #1
 800142c:	6053      	str	r3, [r2, #4]
  NVIC_SetPriority (SysTick_IRQn, (1UL << __NVIC_PRIO_BITS) - 1UL); /* set Priority for Systick Interrupt */
 800142e:	210f      	movs	r1, #15
 8001430:	f04f 30ff 	mov.w	r0, #4294967295
 8001434:	f7ff ff90 	bl	8001358 <__NVIC_SetPriority>
  SysTick->VAL   = 0UL;                                             /* Load the SysTick Counter Value */
 8001438:	4b05      	ldr	r3, [pc, #20]	; (8001450 <SysTick_Config+0x40>)
 800143a:	2200      	movs	r2, #0
 800143c:	609a      	str	r2, [r3, #8]
  SysTick->CTRL  = SysTick_CTRL_CLKSOURCE_Msk |
 800143e:	4b04      	ldr	r3, [pc, #16]	; (8001450 <SysTick_Config+0x40>)
 8001440:	2207      	movs	r2, #7
 8001442:	601a      	str	r2, [r3, #0]
                   SysTick_CTRL_TICKINT_Msk   |
                   SysTick_CTRL_ENABLE_Msk;                         /* Enable SysTick IRQ and SysTick Timer */
  return (0UL);                                                     /* Function successful */
 8001444:	2300      	movs	r3, #0
}
 8001446:	4618      	mov	r0, r3
 8001448:	3708      	adds	r7, #8
 800144a:	46bd      	mov	sp, r7
 800144c:	bd80      	pop	{r7, pc}
 800144e:	bf00      	nop
 8001450:	e000e010 	.word	0xe000e010

08001454 <HAL_NVIC_SetPriorityGrouping>:
  * @note   When the NVIC_PriorityGroup_0 is selected, IRQ preemption is no more possible. 
  *         The pending IRQ priority will be managed only by the subpriority. 
  * @retval None
  */
void HAL_NVIC_SetPriorityGrouping(uint32_t PriorityGroup)
{
 8001454:	b580      	push	{r7, lr}
 8001456:	b082      	sub	sp, #8
 8001458:	af00      	add	r7, sp, #0
 800145a:	6078      	str	r0, [r7, #4]
  /* Check the parameters */
  assert_param(IS_NVIC_PRIORITY_GROUP(PriorityGroup));
  
  /* Set the PRIGROUP[10:8] bits according to the PriorityGroup parameter value */
  NVIC_SetPriorityGrouping(PriorityGroup);
 800145c:	6878      	ldr	r0, [r7, #4]
 800145e:	f7ff ff2d 	bl	80012bc <__NVIC_SetPriorityGrouping>
}
 8001462:	bf00      	nop
 8001464:	3708      	adds	r7, #8
 8001466:	46bd      	mov	sp, r7
 8001468:	bd80      	pop	{r7, pc}

0800146a <HAL_NVIC_SetPriority>:
  *         This parameter can be a value between 0 and 15
  *         A lower priority value indicates a higher priority.          
  * @retval None
  */
void HAL_NVIC_SetPriority(IRQn_Type IRQn, uint32_t PreemptPriority, uint32_t SubPriority)
{ 
 800146a:	b580      	push	{r7, lr}
 800146c:	b086      	sub	sp, #24
 800146e:	af00      	add	r7, sp, #0
 8001470:	4603      	mov	r3, r0
 8001472:	60b9      	str	r1, [r7, #8]
 8001474:	607a      	str	r2, [r7, #4]
 8001476:	73fb      	strb	r3, [r7, #15]
  uint32_t prioritygroup = 0x00U;
 8001478:	2300      	movs	r3, #0
 800147a:	617b      	str	r3, [r7, #20]
  
  /* Check the parameters */
  assert_param(IS_NVIC_SUB_PRIORITY(SubPriority));
  assert_param(IS_NVIC_PREEMPTION_PRIORITY(PreemptPriority));
  
  prioritygroup = NVIC_GetPriorityGrouping();
 800147c:	f7ff ff42 	bl	8001304 <__NVIC_GetPriorityGrouping>
 8001480:	6178      	str	r0, [r7, #20]
  
  NVIC_SetPriority(IRQn, NVIC_EncodePriority(prioritygroup, PreemptPriority, SubPriority));
 8001482:	687a      	ldr	r2, [r7, #4]
 8001484:	68b9      	ldr	r1, [r7, #8]
 8001486:	6978      	ldr	r0, [r7, #20]
 8001488:	f7ff ff90 	bl	80013ac <NVIC_EncodePriority>
 800148c:	4602      	mov	r2, r0
 800148e:	f997 300f 	ldrsb.w	r3, [r7, #15]
 8001492:	4611      	mov	r1, r2
 8001494:	4618      	mov	r0, r3
 8001496:	f7ff ff5f 	bl	8001358 <__NVIC_SetPriority>
}
 800149a:	bf00      	nop
 800149c:	3718      	adds	r7, #24
 800149e:	46bd      	mov	sp, r7
 80014a0:	bd80      	pop	{r7, pc}

080014a2 <HAL_NVIC_EnableIRQ>:
  *         This parameter can be an enumerator of IRQn_Type enumeration
  *         (For the complete STM32 Devices IRQ Channels list, please refer to the appropriate CMSIS device file (stm32f10xxx.h))
  * @retval None
  */
void HAL_NVIC_EnableIRQ(IRQn_Type IRQn)
{
 80014a2:	b580      	push	{r7, lr}
 80014a4:	b082      	sub	sp, #8
 80014a6:	af00      	add	r7, sp, #0
 80014a8:	4603      	mov	r3, r0
 80014aa:	71fb      	strb	r3, [r7, #7]
  /* Check the parameters */
  assert_param(IS_NVIC_DEVICE_IRQ(IRQn));

  /* Enable interrupt */
  NVIC_EnableIRQ(IRQn);
 80014ac:	f997 3007 	ldrsb.w	r3, [r7, #7]
 80014b0:	4618      	mov	r0, r3
 80014b2:	f7ff ff35 	bl	8001320 <__NVIC_EnableIRQ>
}
 80014b6:	bf00      	nop
 80014b8:	3708      	adds	r7, #8
 80014ba:	46bd      	mov	sp, r7
 80014bc:	bd80      	pop	{r7, pc}

080014be <HAL_SYSTICK_Config>:
  * @param  TicksNumb: Specifies the ticks Number of ticks between two interrupts.
  * @retval status:  - 0  Function succeeded.
  *                  - 1  Function failed.
  */
uint32_t HAL_SYSTICK_Config(uint32_t TicksNumb)
{
 80014be:	b580      	push	{r7, lr}
 80014c0:	b082      	sub	sp, #8
 80014c2:	af00      	add	r7, sp, #0
 80014c4:	6078      	str	r0, [r7, #4]
   return SysTick_Config(TicksNumb);
 80014c6:	6878      	ldr	r0, [r7, #4]
 80014c8:	f7ff ffa2 	bl	8001410 <SysTick_Config>
 80014cc:	4603      	mov	r3, r0
}
 80014ce:	4618      	mov	r0, r3
 80014d0:	3708      	adds	r7, #8
 80014d2:	46bd      	mov	sp, r7
 80014d4:	bd80      	pop	{r7, pc}
	...

080014d8 <HAL_GPIO_Init>:
  * @param  GPIO_Init: pointer to a GPIO_InitTypeDef structure that contains
  *         the configuration information for the specified GPIO peripheral.
  * @retval None
  */
void HAL_GPIO_Init(GPIO_TypeDef  *GPIOx, GPIO_InitTypeDef *GPIO_Init)
{
 80014d8:	b480      	push	{r7}
 80014da:	b08b      	sub	sp, #44	; 0x2c
 80014dc:	af00      	add	r7, sp, #0
 80014de:	6078      	str	r0, [r7, #4]
 80014e0:	6039      	str	r1, [r7, #0]
  uint32_t position = 0x00u;
 80014e2:	2300      	movs	r3, #0
 80014e4:	627b      	str	r3, [r7, #36]	; 0x24
  uint32_t ioposition;
  uint32_t iocurrent;
  uint32_t temp;
  uint32_t config = 0x00u;
 80014e6:	2300      	movs	r3, #0
 80014e8:	623b      	str	r3, [r7, #32]
  assert_param(IS_GPIO_ALL_INSTANCE(GPIOx));
  assert_param(IS_GPIO_PIN(GPIO_Init->Pin));
  assert_param(IS_GPIO_MODE(GPIO_Init->Mode));

  /* Configure the port pins */
  while (((GPIO_Init->Pin) >> position) != 0x00u)
 80014ea:	e148      	b.n	800177e <HAL_GPIO_Init+0x2a6>
  {
    /* Get the IO position */
    ioposition = (0x01uL << position);
 80014ec:	2201      	movs	r2, #1
 80014ee:	6a7b      	ldr	r3, [r7, #36]	; 0x24
 80014f0:	fa02 f303 	lsl.w	r3, r2, r3
 80014f4:	61fb      	str	r3, [r7, #28]

    /* Get the current IO position */
    iocurrent = (uint32_t)(GPIO_Init->Pin) & ioposition;
 80014f6:	683b      	ldr	r3, [r7, #0]
 80014f8:	681b      	ldr	r3, [r3, #0]
 80014fa:	69fa      	ldr	r2, [r7, #28]
 80014fc:	4013      	ands	r3, r2
 80014fe:	61bb      	str	r3, [r7, #24]

    if (iocurrent == ioposition)
 8001500:	69ba      	ldr	r2, [r7, #24]
 8001502:	69fb      	ldr	r3, [r7, #28]
 8001504:	429a      	cmp	r2, r3
 8001506:	f040 8137 	bne.w	8001778 <HAL_GPIO_Init+0x2a0>
    {
      /* Check the Alternate function parameters */
      assert_param(IS_GPIO_AF_INSTANCE(GPIOx));

      /* Based on the required mode, filling config variable with MODEy[1:0] and CNFy[3:2] corresponding bits */
      switch (GPIO_Init->Mode)
 800150a:	683b      	ldr	r3, [r7, #0]
 800150c:	685b      	ldr	r3, [r3, #4]
 800150e:	4aa3      	ldr	r2, [pc, #652]	; (800179c <HAL_GPIO_Init+0x2c4>)
 8001510:	4293      	cmp	r3, r2
 8001512:	d05e      	beq.n	80015d2 <HAL_GPIO_Init+0xfa>
 8001514:	4aa1      	ldr	r2, [pc, #644]	; (800179c <HAL_GPIO_Init+0x2c4>)
 8001516:	4293      	cmp	r3, r2
 8001518:	d875      	bhi.n	8001606 <HAL_GPIO_Init+0x12e>
 800151a:	4aa1      	ldr	r2, [pc, #644]	; (80017a0 <HAL_GPIO_Init+0x2c8>)
 800151c:	4293      	cmp	r3, r2
 800151e:	d058      	beq.n	80015d2 <HAL_GPIO_Init+0xfa>
 8001520:	4a9f      	ldr	r2, [pc, #636]	; (80017a0 <HAL_GPIO_Init+0x2c8>)
 8001522:	4293      	cmp	r3, r2
 8001524:	d86f      	bhi.n	8001606 <HAL_GPIO_Init+0x12e>
 8001526:	4a9f      	ldr	r2, [pc, #636]	; (80017a4 <HAL_GPIO_Init+0x2cc>)
 8001528:	4293      	cmp	r3, r2
 800152a:	d052      	beq.n	80015d2 <HAL_GPIO_Init+0xfa>
 800152c:	4a9d      	ldr	r2, [pc, #628]	; (80017a4 <HAL_GPIO_Init+0x2cc>)
 800152e:	4293      	cmp	r3, r2
 8001530:	d869      	bhi.n	8001606 <HAL_GPIO_Init+0x12e>
 8001532:	4a9d      	ldr	r2, [pc, #628]	; (80017a8 <HAL_GPIO_Init+0x2d0>)
 8001534:	4293      	cmp	r3, r2
 8001536:	d04c      	beq.n	80015d2 <HAL_GPIO_Init+0xfa>
 8001538:	4a9b      	ldr	r2, [pc, #620]	; (80017a8 <HAL_GPIO_Init+0x2d0>)
 800153a:	4293      	cmp	r3, r2
 800153c:	d863      	bhi.n	8001606 <HAL_GPIO_Init+0x12e>
 800153e:	4a9b      	ldr	r2, [pc, #620]	; (80017ac <HAL_GPIO_Init+0x2d4>)
 8001540:	4293      	cmp	r3, r2
 8001542:	d046      	beq.n	80015d2 <HAL_GPIO_Init+0xfa>
 8001544:	4a99      	ldr	r2, [pc, #612]	; (80017ac <HAL_GPIO_Init+0x2d4>)
 8001546:	4293      	cmp	r3, r2
 8001548:	d85d      	bhi.n	8001606 <HAL_GPIO_Init+0x12e>
 800154a:	2b12      	cmp	r3, #18
 800154c:	d82a      	bhi.n	80015a4 <HAL_GPIO_Init+0xcc>
 800154e:	2b12      	cmp	r3, #18
 8001550:	d859      	bhi.n	8001606 <HAL_GPIO_Init+0x12e>
 8001552:	a201      	add	r2, pc, #4	; (adr r2, 8001558 <HAL_GPIO_Init+0x80>)
 8001554:	f852 f023 	ldr.w	pc, [r2, r3, lsl #2]
 8001558:	080015d3 	.word	0x080015d3
 800155c:	080015ad 	.word	0x080015ad
 8001560:	080015bf 	.word	0x080015bf
 8001564:	08001601 	.word	0x08001601
 8001568:	08001607 	.word	0x08001607
 800156c:	08001607 	.word	0x08001607
 8001570:	08001607 	.word	0x08001607
 8001574:	08001607 	.word	0x08001607
 8001578:	08001607 	.word	0x08001607
 800157c:	08001607 	.word	0x08001607
 8001580:	08001607 	.word	0x08001607
 8001584:	08001607 	.word	0x08001607
 8001588:	08001607 	.word	0x08001607
 800158c:	08001607 	.word	0x08001607
 8001590:	08001607 	.word	0x08001607
 8001594:	08001607 	.word	0x08001607
 8001598:	08001607 	.word	0x08001607
 800159c:	080015b5 	.word	0x080015b5
 80015a0:	080015c9 	.word	0x080015c9
 80015a4:	4a82      	ldr	r2, [pc, #520]	; (80017b0 <HAL_GPIO_Init+0x2d8>)
 80015a6:	4293      	cmp	r3, r2
 80015a8:	d013      	beq.n	80015d2 <HAL_GPIO_Init+0xfa>
          config = GPIO_CR_MODE_INPUT + GPIO_CR_CNF_ANALOG;
          break;

        /* Parameters are checked with assert_param */
        default:
          break;
 80015aa:	e02c      	b.n	8001606 <HAL_GPIO_Init+0x12e>
          config = GPIO_Init->Speed + GPIO_CR_CNF_GP_OUTPUT_PP;
 80015ac:	683b      	ldr	r3, [r7, #0]
 80015ae:	68db      	ldr	r3, [r3, #12]
 80015b0:	623b      	str	r3, [r7, #32]
          break;
 80015b2:	e029      	b.n	8001608 <HAL_GPIO_Init+0x130>
          config = GPIO_Init->Speed + GPIO_CR_CNF_GP_OUTPUT_OD;
 80015b4:	683b      	ldr	r3, [r7, #0]
 80015b6:	68db      	ldr	r3, [r3, #12]
 80015b8:	3304      	adds	r3, #4
 80015ba:	623b      	str	r3, [r7, #32]
          break;
 80015bc:	e024      	b.n	8001608 <HAL_GPIO_Init+0x130>
          config = GPIO_Init->Speed + GPIO_CR_CNF_AF_OUTPUT_PP;
 80015be:	683b      	ldr	r3, [r7, #0]
 80015c0:	68db      	ldr	r3, [r3, #12]
 80015c2:	3308      	adds	r3, #8
 80015c4:	623b      	str	r3, [r7, #32]
          break;
 80015c6:	e01f      	b.n	8001608 <HAL_GPIO_Init+0x130>
          config = GPIO_Init->Speed + GPIO_CR_CNF_AF_OUTPUT_OD;
 80015c8:	683b      	ldr	r3, [r7, #0]
 80015ca:	68db      	ldr	r3, [r3, #12]
 80015cc:	330c      	adds	r3, #12
 80015ce:	623b      	str	r3, [r7, #32]
          break;
 80015d0:	e01a      	b.n	8001608 <HAL_GPIO_Init+0x130>
          if (GPIO_Init->Pull == GPIO_NOPULL)
 80015d2:	683b      	ldr	r3, [r7, #0]
 80015d4:	689b      	ldr	r3, [r3, #8]
 80015d6:	2b00      	cmp	r3, #0
 80015d8:	d102      	bne.n	80015e0 <HAL_GPIO_Init+0x108>
            config = GPIO_CR_MODE_INPUT + GPIO_CR_CNF_INPUT_FLOATING;
 80015da:	2304      	movs	r3, #4
 80015dc:	623b      	str	r3, [r7, #32]
          break;
 80015de:	e013      	b.n	8001608 <HAL_GPIO_Init+0x130>
          else if (GPIO_Init->Pull == GPIO_PULLUP)
 80015e0:	683b      	ldr	r3, [r7, #0]
 80015e2:	689b      	ldr	r3, [r3, #8]
 80015e4:	2b01      	cmp	r3, #1
 80015e6:	d105      	bne.n	80015f4 <HAL_GPIO_Init+0x11c>
            config = GPIO_CR_MODE_INPUT + GPIO_CR_CNF_INPUT_PU_PD;
 80015e8:	2308      	movs	r3, #8
 80015ea:	623b      	str	r3, [r7, #32]
            GPIOx->BSRR = ioposition;
 80015ec:	687b      	ldr	r3, [r7, #4]
 80015ee:	69fa      	ldr	r2, [r7, #28]
 80015f0:	611a      	str	r2, [r3, #16]
          break;
 80015f2:	e009      	b.n	8001608 <HAL_GPIO_Init+0x130>
            config = GPIO_CR_MODE_INPUT + GPIO_CR_CNF_INPUT_PU_PD;
 80015f4:	2308      	movs	r3, #8
 80015f6:	623b      	str	r3, [r7, #32]
            GPIOx->BRR = ioposition;
 80015f8:	687b      	ldr	r3, [r7, #4]
 80015fa:	69fa      	ldr	r2, [r7, #28]
 80015fc:	615a      	str	r2, [r3, #20]
          break;
 80015fe:	e003      	b.n	8001608 <HAL_GPIO_Init+0x130>
          config = GPIO_CR_MODE_INPUT + GPIO_CR_CNF_ANALOG;
 8001600:	2300      	movs	r3, #0
 8001602:	623b      	str	r3, [r7, #32]
          break;
 8001604:	e000      	b.n	8001608 <HAL_GPIO_Init+0x130>
          break;
 8001606:	bf00      	nop
      }

      /* Check if the current bit belongs to first half or last half of the pin count number
       in order to address CRH or CRL register*/
      configregister = (iocurrent < GPIO_PIN_8) ? &GPIOx->CRL     : &GPIOx->CRH;
 8001608:	69bb      	ldr	r3, [r7, #24]
 800160a:	2bff      	cmp	r3, #255	; 0xff
 800160c:	d801      	bhi.n	8001612 <HAL_GPIO_Init+0x13a>
 800160e:	687b      	ldr	r3, [r7, #4]
 8001610:	e001      	b.n	8001616 <HAL_GPIO_Init+0x13e>
 8001612:	687b      	ldr	r3, [r7, #4]
 8001614:	3304      	adds	r3, #4
 8001616:	617b      	str	r3, [r7, #20]
      registeroffset = (iocurrent < GPIO_PIN_8) ? (position << 2u) : ((position - 8u) << 2u);
 8001618:	69bb      	ldr	r3, [r7, #24]
 800161a:	2bff      	cmp	r3, #255	; 0xff
 800161c:	d802      	bhi.n	8001624 <HAL_GPIO_Init+0x14c>
 800161e:	6a7b      	ldr	r3, [r7, #36]	; 0x24
 8001620:	009b      	lsls	r3, r3, #2
 8001622:	e002      	b.n	800162a <HAL_GPIO_Init+0x152>
 8001624:	6a7b      	ldr	r3, [r7, #36]	; 0x24
 8001626:	3b08      	subs	r3, #8
 8001628:	009b      	lsls	r3, r3, #2
 800162a:	613b      	str	r3, [r7, #16]

      /* Apply the new configuration of the pin to the register */
      MODIFY_REG((*configregister), ((GPIO_CRL_MODE0 | GPIO_CRL_CNF0) << registeroffset), (config << registeroffset));
 800162c:	697b      	ldr	r3, [r7, #20]
 800162e:	681a      	ldr	r2, [r3, #0]
 8001630:	210f      	movs	r1, #15
 8001632:	693b      	ldr	r3, [r7, #16]
 8001634:	fa01 f303 	lsl.w	r3, r1, r3
 8001638:	43db      	mvns	r3, r3
 800163a:	401a      	ands	r2, r3
 800163c:	6a39      	ldr	r1, [r7, #32]
 800163e:	693b      	ldr	r3, [r7, #16]
 8001640:	fa01 f303 	lsl.w	r3, r1, r3
 8001644:	431a      	orrs	r2, r3
 8001646:	697b      	ldr	r3, [r7, #20]
 8001648:	601a      	str	r2, [r3, #0]

      /*--------------------- EXTI Mode Configuration ------------------------*/
      /* Configure the External Interrupt or event for the current IO */
      if ((GPIO_Init->Mode & EXTI_MODE) == EXTI_MODE)
 800164a:	683b      	ldr	r3, [r7, #0]
 800164c:	685b      	ldr	r3, [r3, #4]
 800164e:	f003 5380 	and.w	r3, r3, #268435456	; 0x10000000
 8001652:	2b00      	cmp	r3, #0
 8001654:	f000 8090 	beq.w	8001778 <HAL_GPIO_Init+0x2a0>
      {
        /* Enable AFIO Clock */
        __HAL_RCC_AFIO_CLK_ENABLE();
 8001658:	4b56      	ldr	r3, [pc, #344]	; (80017b4 <HAL_GPIO_Init+0x2dc>)
 800165a:	699b      	ldr	r3, [r3, #24]
 800165c:	4a55      	ldr	r2, [pc, #340]	; (80017b4 <HAL_GPIO_Init+0x2dc>)
 800165e:	f043 0301 	orr.w	r3, r3, #1
 8001662:	6193      	str	r3, [r2, #24]
 8001664:	4b53      	ldr	r3, [pc, #332]	; (80017b4 <HAL_GPIO_Init+0x2dc>)
 8001666:	699b      	ldr	r3, [r3, #24]
 8001668:	f003 0301 	and.w	r3, r3, #1
 800166c:	60bb      	str	r3, [r7, #8]
 800166e:	68bb      	ldr	r3, [r7, #8]
        temp = AFIO->EXTICR[position >> 2u];
 8001670:	4a51      	ldr	r2, [pc, #324]	; (80017b8 <HAL_GPIO_Init+0x2e0>)
 8001672:	6a7b      	ldr	r3, [r7, #36]	; 0x24
 8001674:	089b      	lsrs	r3, r3, #2
 8001676:	3302      	adds	r3, #2
 8001678:	f852 3023 	ldr.w	r3, [r2, r3, lsl #2]
 800167c:	60fb      	str	r3, [r7, #12]
        CLEAR_BIT(temp, (0x0Fu) << (4u * (position & 0x03u)));
 800167e:	6a7b      	ldr	r3, [r7, #36]	; 0x24
 8001680:	f003 0303 	and.w	r3, r3, #3
 8001684:	009b      	lsls	r3, r3, #2
 8001686:	220f      	movs	r2, #15
 8001688:	fa02 f303 	lsl.w	r3, r2, r3
 800168c:	43db      	mvns	r3, r3
 800168e:	68fa      	ldr	r2, [r7, #12]
 8001690:	4013      	ands	r3, r2
 8001692:	60fb      	str	r3, [r7, #12]
        SET_BIT(temp, (GPIO_GET_INDEX(GPIOx)) << (4u * (position & 0x03u)));
 8001694:	687b      	ldr	r3, [r7, #4]
 8001696:	4a49      	ldr	r2, [pc, #292]	; (80017bc <HAL_GPIO_Init+0x2e4>)
 8001698:	4293      	cmp	r3, r2
 800169a:	d00d      	beq.n	80016b8 <HAL_GPIO_Init+0x1e0>
 800169c:	687b      	ldr	r3, [r7, #4]
 800169e:	4a48      	ldr	r2, [pc, #288]	; (80017c0 <HAL_GPIO_Init+0x2e8>)
 80016a0:	4293      	cmp	r3, r2
 80016a2:	d007      	beq.n	80016b4 <HAL_GPIO_Init+0x1dc>
 80016a4:	687b      	ldr	r3, [r7, #4]
 80016a6:	4a47      	ldr	r2, [pc, #284]	; (80017c4 <HAL_GPIO_Init+0x2ec>)
 80016a8:	4293      	cmp	r3, r2
 80016aa:	d101      	bne.n	80016b0 <HAL_GPIO_Init+0x1d8>
 80016ac:	2302      	movs	r3, #2
 80016ae:	e004      	b.n	80016ba <HAL_GPIO_Init+0x1e2>
 80016b0:	2303      	movs	r3, #3
 80016b2:	e002      	b.n	80016ba <HAL_GPIO_Init+0x1e2>
 80016b4:	2301      	movs	r3, #1
 80016b6:	e000      	b.n	80016ba <HAL_GPIO_Init+0x1e2>
 80016b8:	2300      	movs	r3, #0
 80016ba:	6a7a      	ldr	r2, [r7, #36]	; 0x24
 80016bc:	f002 0203 	and.w	r2, r2, #3
 80016c0:	0092      	lsls	r2, r2, #2
 80016c2:	4093      	lsls	r3, r2
 80016c4:	68fa      	ldr	r2, [r7, #12]
 80016c6:	4313      	orrs	r3, r2
 80016c8:	60fb      	str	r3, [r7, #12]
        AFIO->EXTICR[position >> 2u] = temp;
 80016ca:	493b      	ldr	r1, [pc, #236]	; (80017b8 <HAL_GPIO_Init+0x2e0>)
 80016cc:	6a7b      	ldr	r3, [r7, #36]	; 0x24
 80016ce:	089b      	lsrs	r3, r3, #2
 80016d0:	3302      	adds	r3, #2
 80016d2:	68fa      	ldr	r2, [r7, #12]
 80016d4:	f841 2023 	str.w	r2, [r1, r3, lsl #2]


        /* Enable or disable the rising trigger */
        if ((GPIO_Init->Mode & RISING_EDGE) == RISING_EDGE)
 80016d8:	683b      	ldr	r3, [r7, #0]
 80016da:	685b      	ldr	r3, [r3, #4]
 80016dc:	f403 1380 	and.w	r3, r3, #1048576	; 0x100000
 80016e0:	2b00      	cmp	r3, #0
 80016e2:	d006      	beq.n	80016f2 <HAL_GPIO_Init+0x21a>
        {
          SET_BIT(EXTI->RTSR, iocurrent);
 80016e4:	4b38      	ldr	r3, [pc, #224]	; (80017c8 <HAL_GPIO_Init+0x2f0>)
 80016e6:	689a      	ldr	r2, [r3, #8]
 80016e8:	4937      	ldr	r1, [pc, #220]	; (80017c8 <HAL_GPIO_Init+0x2f0>)
 80016ea:	69bb      	ldr	r3, [r7, #24]
 80016ec:	4313      	orrs	r3, r2
 80016ee:	608b      	str	r3, [r1, #8]
 80016f0:	e006      	b.n	8001700 <HAL_GPIO_Init+0x228>
        }
        else
        {
          CLEAR_BIT(EXTI->RTSR, iocurrent);
 80016f2:	4b35      	ldr	r3, [pc, #212]	; (80017c8 <HAL_GPIO_Init+0x2f0>)
 80016f4:	689a      	ldr	r2, [r3, #8]
 80016f6:	69bb      	ldr	r3, [r7, #24]
 80016f8:	43db      	mvns	r3, r3
 80016fa:	4933      	ldr	r1, [pc, #204]	; (80017c8 <HAL_GPIO_Init+0x2f0>)
 80016fc:	4013      	ands	r3, r2
 80016fe:	608b      	str	r3, [r1, #8]
        }

        /* Enable or disable the falling trigger */
        if ((GPIO_Init->Mode & FALLING_EDGE) == FALLING_EDGE)
 8001700:	683b      	ldr	r3, [r7, #0]
 8001702:	685b      	ldr	r3, [r3, #4]
 8001704:	f403 1300 	and.w	r3, r3, #2097152	; 0x200000
 8001708:	2b00      	cmp	r3, #0
 800170a:	d006      	beq.n	800171a <HAL_GPIO_Init+0x242>
        {
          SET_BIT(EXTI->FTSR, iocurrent);
 800170c:	4b2e      	ldr	r3, [pc, #184]	; (80017c8 <HAL_GPIO_Init+0x2f0>)
 800170e:	68da      	ldr	r2, [r3, #12]
 8001710:	492d      	ldr	r1, [pc, #180]	; (80017c8 <HAL_GPIO_Init+0x2f0>)
 8001712:	69bb      	ldr	r3, [r7, #24]
 8001714:	4313      	orrs	r3, r2
 8001716:	60cb      	str	r3, [r1, #12]
 8001718:	e006      	b.n	8001728 <HAL_GPIO_Init+0x250>
        }
        else
        {
          CLEAR_BIT(EXTI->FTSR, iocurrent);
 800171a:	4b2b      	ldr	r3, [pc, #172]	; (80017c8 <HAL_GPIO_Init+0x2f0>)
 800171c:	68da      	ldr	r2, [r3, #12]
 800171e:	69bb      	ldr	r3, [r7, #24]
 8001720:	43db      	mvns	r3, r3
 8001722:	4929      	ldr	r1, [pc, #164]	; (80017c8 <HAL_GPIO_Init+0x2f0>)
 8001724:	4013      	ands	r3, r2
 8001726:	60cb      	str	r3, [r1, #12]
        }

        /* Configure the event mask */
        if ((GPIO_Init->Mode & GPIO_MODE_EVT) == GPIO_MODE_EVT)
 8001728:	683b      	ldr	r3, [r7, #0]
 800172a:	685b      	ldr	r3, [r3, #4]
 800172c:	f403 3300 	and.w	r3, r3, #131072	; 0x20000
 8001730:	2b00      	cmp	r3, #0
 8001732:	d006      	beq.n	8001742 <HAL_GPIO_Init+0x26a>
        {
          SET_BIT(EXTI->EMR, iocurrent);
 8001734:	4b24      	ldr	r3, [pc, #144]	; (80017c8 <HAL_GPIO_Init+0x2f0>)
 8001736:	685a      	ldr	r2, [r3, #4]
 8001738:	4923      	ldr	r1, [pc, #140]	; (80017c8 <HAL_GPIO_Init+0x2f0>)
 800173a:	69bb      	ldr	r3, [r7, #24]
 800173c:	4313      	orrs	r3, r2
 800173e:	604b      	str	r3, [r1, #4]
 8001740:	e006      	b.n	8001750 <HAL_GPIO_Init+0x278>
        }
        else
        {
          CLEAR_BIT(EXTI->EMR, iocurrent);
 8001742:	4b21      	ldr	r3, [pc, #132]	; (80017c8 <HAL_GPIO_Init+0x2f0>)
 8001744:	685a      	ldr	r2, [r3, #4]
 8001746:	69bb      	ldr	r3, [r7, #24]
 8001748:	43db      	mvns	r3, r3
 800174a:	491f      	ldr	r1, [pc, #124]	; (80017c8 <HAL_GPIO_Init+0x2f0>)
 800174c:	4013      	ands	r3, r2
 800174e:	604b      	str	r3, [r1, #4]
        }

        /* Configure the interrupt mask */
        if ((GPIO_Init->Mode & GPIO_MODE_IT) == GPIO_MODE_IT)
 8001750:	683b      	ldr	r3, [r7, #0]
 8001752:	685b      	ldr	r3, [r3, #4]
 8001754:	f403 3380 	and.w	r3, r3, #65536	; 0x10000
 8001758:	2b00      	cmp	r3, #0
 800175a:	d006      	beq.n	800176a <HAL_GPIO_Init+0x292>
        {
          SET_BIT(EXTI->IMR, iocurrent);
 800175c:	4b1a      	ldr	r3, [pc, #104]	; (80017c8 <HAL_GPIO_Init+0x2f0>)
 800175e:	681a      	ldr	r2, [r3, #0]
 8001760:	4919      	ldr	r1, [pc, #100]	; (80017c8 <HAL_GPIO_Init+0x2f0>)
 8001762:	69bb      	ldr	r3, [r7, #24]
 8001764:	4313      	orrs	r3, r2
 8001766:	600b      	str	r3, [r1, #0]
 8001768:	e006      	b.n	8001778 <HAL_GPIO_Init+0x2a0>
        }
        else
        {
          CLEAR_BIT(EXTI->IMR, iocurrent);
 800176a:	4b17      	ldr	r3, [pc, #92]	; (80017c8 <HAL_GPIO_Init+0x2f0>)
 800176c:	681a      	ldr	r2, [r3, #0]
 800176e:	69bb      	ldr	r3, [r7, #24]
 8001770:	43db      	mvns	r3, r3
 8001772:	4915      	ldr	r1, [pc, #84]	; (80017c8 <HAL_GPIO_Init+0x2f0>)
 8001774:	4013      	ands	r3, r2
 8001776:	600b      	str	r3, [r1, #0]
        }
      }
    }

	position++;
 8001778:	6a7b      	ldr	r3, [r7, #36]	; 0x24
 800177a:	3301      	adds	r3, #1
 800177c:	627b      	str	r3, [r7, #36]	; 0x24
  while (((GPIO_Init->Pin) >> position) != 0x00u)
 800177e:	683b      	ldr	r3, [r7, #0]
 8001780:	681a      	ldr	r2, [r3, #0]
 8001782:	6a7b      	ldr	r3, [r7, #36]	; 0x24
 8001784:	fa22 f303 	lsr.w	r3, r2, r3
 8001788:	2b00      	cmp	r3, #0
 800178a:	f47f aeaf 	bne.w	80014ec <HAL_GPIO_Init+0x14>
  }
}
 800178e:	bf00      	nop
 8001790:	bf00      	nop
 8001792:	372c      	adds	r7, #44	; 0x2c
 8001794:	46bd      	mov	sp, r7
 8001796:	bc80      	pop	{r7}
 8001798:	4770      	bx	lr
 800179a:	bf00      	nop
 800179c:	10320000 	.word	0x10320000
 80017a0:	10310000 	.word	0x10310000
 80017a4:	10220000 	.word	0x10220000
 80017a8:	10210000 	.word	0x10210000
 80017ac:	10120000 	.word	0x10120000
 80017b0:	10110000 	.word	0x10110000
 80017b4:	40021000 	.word	0x40021000
 80017b8:	40010000 	.word	0x40010000
 80017bc:	40010800 	.word	0x40010800
 80017c0:	40010c00 	.word	0x40010c00
 80017c4:	40011000 	.word	0x40011000
 80017c8:	40010400 	.word	0x40010400

080017cc <HAL_GPIO_ReadPin>:
  * @param  GPIO_Pin: specifies the port bit to read.
  *         This parameter can be GPIO_PIN_x where x can be (0..15).
  * @retval The input port pin value.
  */
GPIO_PinState HAL_GPIO_ReadPin(GPIO_TypeDef *GPIOx, uint16_t GPIO_Pin)
{
 80017cc:	b480      	push	{r7}
 80017ce:	b085      	sub	sp, #20
 80017d0:	af00      	add	r7, sp, #0
 80017d2:	6078      	str	r0, [r7, #4]
 80017d4:	460b      	mov	r3, r1
 80017d6:	807b      	strh	r3, [r7, #2]
  GPIO_PinState bitstatus;

  /* Check the parameters */
  assert_param(IS_GPIO_PIN(GPIO_Pin));

  if ((GPIOx->IDR & GPIO_Pin) != (uint32_t)GPIO_PIN_RESET)
 80017d8:	687b      	ldr	r3, [r7, #4]
 80017da:	689a      	ldr	r2, [r3, #8]
 80017dc:	887b      	ldrh	r3, [r7, #2]
 80017de:	4013      	ands	r3, r2
 80017e0:	2b00      	cmp	r3, #0
 80017e2:	d002      	beq.n	80017ea <HAL_GPIO_ReadPin+0x1e>
  {
    bitstatus = GPIO_PIN_SET;
 80017e4:	2301      	movs	r3, #1
 80017e6:	73fb      	strb	r3, [r7, #15]
 80017e8:	e001      	b.n	80017ee <HAL_GPIO_ReadPin+0x22>
  }
  else
  {
    bitstatus = GPIO_PIN_RESET;
 80017ea:	2300      	movs	r3, #0
 80017ec:	73fb      	strb	r3, [r7, #15]
  }
  return bitstatus;
 80017ee:	7bfb      	ldrb	r3, [r7, #15]
}
 80017f0:	4618      	mov	r0, r3
 80017f2:	3714      	adds	r7, #20
 80017f4:	46bd      	mov	sp, r7
 80017f6:	bc80      	pop	{r7}
 80017f8:	4770      	bx	lr

080017fa <HAL_GPIO_WritePin>:
  *            @arg GPIO_PIN_RESET: to clear the port pin
  *            @arg GPIO_PIN_SET: to set the port pin
  * @retval None
  */
void HAL_GPIO_WritePin(GPIO_TypeDef *GPIOx, uint16_t GPIO_Pin, GPIO_PinState PinState)
{
 80017fa:	b480      	push	{r7}
 80017fc:	b083      	sub	sp, #12
 80017fe:	af00      	add	r7, sp, #0
 8001800:	6078      	str	r0, [r7, #4]
 8001802:	460b      	mov	r3, r1
 8001804:	807b      	strh	r3, [r7, #2]
 8001806:	4613      	mov	r3, r2
 8001808:	707b      	strb	r3, [r7, #1]
  /* Check the parameters */
  assert_param(IS_GPIO_PIN(GPIO_Pin));
  assert_param(IS_GPIO_PIN_ACTION(PinState));

  if (PinState != GPIO_PIN_RESET)
 800180a:	787b      	ldrb	r3, [r7, #1]
 800180c:	2b00      	cmp	r3, #0
 800180e:	d003      	beq.n	8001818 <HAL_GPIO_WritePin+0x1e>
  {
    GPIOx->BSRR = GPIO_Pin;
 8001810:	887a      	ldrh	r2, [r7, #2]
 8001812:	687b      	ldr	r3, [r7, #4]
 8001814:	611a      	str	r2, [r3, #16]
  }
  else
  {
    GPIOx->BSRR = (uint32_t)GPIO_Pin << 16u;
  }
}
 8001816:	e003      	b.n	8001820 <HAL_GPIO_WritePin+0x26>
    GPIOx->BSRR = (uint32_t)GPIO_Pin << 16u;
 8001818:	887b      	ldrh	r3, [r7, #2]
 800181a:	041a      	lsls	r2, r3, #16
 800181c:	687b      	ldr	r3, [r7, #4]
 800181e:	611a      	str	r2, [r3, #16]
}
 8001820:	bf00      	nop
 8001822:	370c      	adds	r7, #12
 8001824:	46bd      	mov	sp, r7
 8001826:	bc80      	pop	{r7}
 8001828:	4770      	bx	lr

0800182a <HAL_GPIO_TogglePin>:
  * @param  GPIOx: where x can be (A..G depending on device used) to select the GPIO peripheral
  * @param  GPIO_Pin: Specifies the pins to be toggled.
  * @retval None
  */
void HAL_GPIO_TogglePin(GPIO_TypeDef *GPIOx, uint16_t GPIO_Pin)
{
 800182a:	b480      	push	{r7}
 800182c:	b085      	sub	sp, #20
 800182e:	af00      	add	r7, sp, #0
 8001830:	6078      	str	r0, [r7, #4]
 8001832:	460b      	mov	r3, r1
 8001834:	807b      	strh	r3, [r7, #2]

  /* Check the parameters */
  assert_param(IS_GPIO_PIN(GPIO_Pin));

  /* get current Output Data Register value */
  odr = GPIOx->ODR;
 8001836:	687b      	ldr	r3, [r7, #4]
 8001838:	68db      	ldr	r3, [r3, #12]
 800183a:	60fb      	str	r3, [r7, #12]

  /* Set selected pins that were at low level, and reset ones that were high */
  GPIOx->BSRR = ((odr & GPIO_Pin) << GPIO_NUMBER) | (~odr & GPIO_Pin);
 800183c:	887a      	ldrh	r2, [r7, #2]
 800183e:	68fb      	ldr	r3, [r7, #12]
 8001840:	4013      	ands	r3, r2
 8001842:	041a      	lsls	r2, r3, #16
 8001844:	68fb      	ldr	r3, [r7, #12]
 8001846:	43d9      	mvns	r1, r3
 8001848:	887b      	ldrh	r3, [r7, #2]
 800184a:	400b      	ands	r3, r1
 800184c:	431a      	orrs	r2, r3
 800184e:	687b      	ldr	r3, [r7, #4]
 8001850:	611a      	str	r2, [r3, #16]
}
 8001852:	bf00      	nop
 8001854:	3714      	adds	r7, #20
 8001856:	46bd      	mov	sp, r7
 8001858:	bc80      	pop	{r7}
 800185a:	4770      	bx	lr

0800185c <HAL_RCC_OscConfig>:
  *         supported by this macro. User should request a transition to HSE Off
  *         first and then HSE On or HSE Bypass.
  * @retval HAL status
  */
HAL_StatusTypeDef HAL_RCC_OscConfig(RCC_OscInitTypeDef  *RCC_OscInitStruct)
{
 800185c:	b580      	push	{r7, lr}
 800185e:	b086      	sub	sp, #24
 8001860:	af00      	add	r7, sp, #0
 8001862:	6078      	str	r0, [r7, #4]
  uint32_t tickstart;
  uint32_t pll_config;

  /* Check Null pointer */
  if (RCC_OscInitStruct == NULL)
 8001864:	687b      	ldr	r3, [r7, #4]
 8001866:	2b00      	cmp	r3, #0
 8001868:	d101      	bne.n	800186e <HAL_RCC_OscConfig+0x12>
  {
    return HAL_ERROR;
 800186a:	2301      	movs	r3, #1
 800186c:	e26c      	b.n	8001d48 <HAL_RCC_OscConfig+0x4ec>

  /* Check the parameters */
  assert_param(IS_RCC_OSCILLATORTYPE(RCC_OscInitStruct->OscillatorType));

  /*------------------------------- HSE Configuration ------------------------*/
  if (((RCC_OscInitStruct->OscillatorType) & RCC_OSCILLATORTYPE_HSE) == RCC_OSCILLATORTYPE_HSE)
 800186e:	687b      	ldr	r3, [r7, #4]
 8001870:	681b      	ldr	r3, [r3, #0]
 8001872:	f003 0301 	and.w	r3, r3, #1
 8001876:	2b00      	cmp	r3, #0
 8001878:	f000 8087 	beq.w	800198a <HAL_RCC_OscConfig+0x12e>
  {
    /* Check the parameters */
    assert_param(IS_RCC_HSE(RCC_OscInitStruct->HSEState));

    /* When the HSE is used as system clock or clock source for PLL in these cases it is not allowed to be disabled */
    if ((__HAL_RCC_GET_SYSCLK_SOURCE() == RCC_SYSCLKSOURCE_STATUS_HSE)
 800187c:	4b92      	ldr	r3, [pc, #584]	; (8001ac8 <HAL_RCC_OscConfig+0x26c>)
 800187e:	685b      	ldr	r3, [r3, #4]
 8001880:	f003 030c 	and.w	r3, r3, #12
 8001884:	2b04      	cmp	r3, #4
 8001886:	d00c      	beq.n	80018a2 <HAL_RCC_OscConfig+0x46>
        || ((__HAL_RCC_GET_SYSCLK_SOURCE() == RCC_SYSCLKSOURCE_STATUS_PLLCLK) && (__HAL_RCC_GET_PLL_OSCSOURCE() == RCC_PLLSOURCE_HSE)))
 8001888:	4b8f      	ldr	r3, [pc, #572]	; (8001ac8 <HAL_RCC_OscConfig+0x26c>)
 800188a:	685b      	ldr	r3, [r3, #4]
 800188c:	f003 030c 	and.w	r3, r3, #12
 8001890:	2b08      	cmp	r3, #8
 8001892:	d112      	bne.n	80018ba <HAL_RCC_OscConfig+0x5e>
 8001894:	4b8c      	ldr	r3, [pc, #560]	; (8001ac8 <HAL_RCC_OscConfig+0x26c>)
 8001896:	685b      	ldr	r3, [r3, #4]
 8001898:	f403 3380 	and.w	r3, r3, #65536	; 0x10000
 800189c:	f5b3 3f80 	cmp.w	r3, #65536	; 0x10000
 80018a0:	d10b      	bne.n	80018ba <HAL_RCC_OscConfig+0x5e>
    {
      if ((__HAL_RCC_GET_FLAG(RCC_FLAG_HSERDY) != RESET) && (RCC_OscInitStruct->HSEState == RCC_HSE_OFF))
 80018a2:	4b89      	ldr	r3, [pc, #548]	; (8001ac8 <HAL_RCC_OscConfig+0x26c>)
 80018a4:	681b      	ldr	r3, [r3, #0]
 80018a6:	f403 3300 	and.w	r3, r3, #131072	; 0x20000
 80018aa:	2b00      	cmp	r3, #0
 80018ac:	d06c      	beq.n	8001988 <HAL_RCC_OscConfig+0x12c>
 80018ae:	687b      	ldr	r3, [r7, #4]
 80018b0:	685b      	ldr	r3, [r3, #4]
 80018b2:	2b00      	cmp	r3, #0
 80018b4:	d168      	bne.n	8001988 <HAL_RCC_OscConfig+0x12c>
      {
        return HAL_ERROR;
 80018b6:	2301      	movs	r3, #1
 80018b8:	e246      	b.n	8001d48 <HAL_RCC_OscConfig+0x4ec>
      }
    }
    else
    {
      /* Set the new HSE configuration ---------------------------------------*/
      __HAL_RCC_HSE_CONFIG(RCC_OscInitStruct->HSEState);
 80018ba:	687b      	ldr	r3, [r7, #4]
 80018bc:	685b      	ldr	r3, [r3, #4]
 80018be:	f5b3 3f80 	cmp.w	r3, #65536	; 0x10000
 80018c2:	d106      	bne.n	80018d2 <HAL_RCC_OscConfig+0x76>
 80018c4:	4b80      	ldr	r3, [pc, #512]	; (8001ac8 <HAL_RCC_OscConfig+0x26c>)
 80018c6:	681b      	ldr	r3, [r3, #0]
 80018c8:	4a7f      	ldr	r2, [pc, #508]	; (8001ac8 <HAL_RCC_OscConfig+0x26c>)
 80018ca:	f443 3380 	orr.w	r3, r3, #65536	; 0x10000
 80018ce:	6013      	str	r3, [r2, #0]
 80018d0:	e02e      	b.n	8001930 <HAL_RCC_OscConfig+0xd4>
 80018d2:	687b      	ldr	r3, [r7, #4]
 80018d4:	685b      	ldr	r3, [r3, #4]
 80018d6:	2b00      	cmp	r3, #0
 80018d8:	d10c      	bne.n	80018f4 <HAL_RCC_OscConfig+0x98>
 80018da:	4b7b      	ldr	r3, [pc, #492]	; (8001ac8 <HAL_RCC_OscConfig+0x26c>)
 80018dc:	681b      	ldr	r3, [r3, #0]
 80018de:	4a7a      	ldr	r2, [pc, #488]	; (8001ac8 <HAL_RCC_OscConfig+0x26c>)
 80018e0:	f423 3380 	bic.w	r3, r3, #65536	; 0x10000
 80018e4:	6013      	str	r3, [r2, #0]
 80018e6:	4b78      	ldr	r3, [pc, #480]	; (8001ac8 <HAL_RCC_OscConfig+0x26c>)
 80018e8:	681b      	ldr	r3, [r3, #0]
 80018ea:	4a77      	ldr	r2, [pc, #476]	; (8001ac8 <HAL_RCC_OscConfig+0x26c>)
 80018ec:	f423 2380 	bic.w	r3, r3, #262144	; 0x40000
 80018f0:	6013      	str	r3, [r2, #0]
 80018f2:	e01d      	b.n	8001930 <HAL_RCC_OscConfig+0xd4>
 80018f4:	687b      	ldr	r3, [r7, #4]
 80018f6:	685b      	ldr	r3, [r3, #4]
 80018f8:	f5b3 2fa0 	cmp.w	r3, #327680	; 0x50000
 80018fc:	d10c      	bne.n	8001918 <HAL_RCC_OscConfig+0xbc>
 80018fe:	4b72      	ldr	r3, [pc, #456]	; (8001ac8 <HAL_RCC_OscConfig+0x26c>)
 8001900:	681b      	ldr	r3, [r3, #0]
 8001902:	4a71      	ldr	r2, [pc, #452]	; (8001ac8 <HAL_RCC_OscConfig+0x26c>)
 8001904:	f443 2380 	orr.w	r3, r3, #262144	; 0x40000
 8001908:	6013      	str	r3, [r2, #0]
 800190a:	4b6f      	ldr	r3, [pc, #444]	; (8001ac8 <HAL_RCC_OscConfig+0x26c>)
 800190c:	681b      	ldr	r3, [r3, #0]
 800190e:	4a6e      	ldr	r2, [pc, #440]	; (8001ac8 <HAL_RCC_OscConfig+0x26c>)
 8001910:	f443 3380 	orr.w	r3, r3, #65536	; 0x10000
 8001914:	6013      	str	r3, [r2, #0]
 8001916:	e00b      	b.n	8001930 <HAL_RCC_OscConfig+0xd4>
 8001918:	4b6b      	ldr	r3, [pc, #428]	; (8001ac8 <HAL_RCC_OscConfig+0x26c>)
 800191a:	681b      	ldr	r3, [r3, #0]
 800191c:	4a6a      	ldr	r2, [pc, #424]	; (8001ac8 <HAL_RCC_OscConfig+0x26c>)
 800191e:	f423 3380 	bic.w	r3, r3, #65536	; 0x10000
 8001922:	6013      	str	r3, [r2, #0]
 8001924:	4b68      	ldr	r3, [pc, #416]	; (8001ac8 <HAL_RCC_OscConfig+0x26c>)
 8001926:	681b      	ldr	r3, [r3, #0]
 8001928:	4a67      	ldr	r2, [pc, #412]	; (8001ac8 <HAL_RCC_OscConfig+0x26c>)
 800192a:	f423 2380 	bic.w	r3, r3, #262144	; 0x40000
 800192e:	6013      	str	r3, [r2, #0]


      /* Check the HSE State */
      if (RCC_OscInitStruct->HSEState != RCC_HSE_OFF)
 8001930:	687b      	ldr	r3, [r7, #4]
 8001932:	685b      	ldr	r3, [r3, #4]
 8001934:	2b00      	cmp	r3, #0
 8001936:	d013      	beq.n	8001960 <HAL_RCC_OscConfig+0x104>
      {
        /* Get Start Tick */
        tickstart = HAL_GetTick();
 8001938:	f7ff fcb6 	bl	80012a8 <HAL_GetTick>
 800193c:	6138      	str	r0, [r7, #16]

        /* Wait till HSE is ready */
        while (__HAL_RCC_GET_FLAG(RCC_FLAG_HSERDY) == RESET)
 800193e:	e008      	b.n	8001952 <HAL_RCC_OscConfig+0xf6>
        {
          if ((HAL_GetTick() - tickstart) > HSE_TIMEOUT_VALUE)
 8001940:	f7ff fcb2 	bl	80012a8 <HAL_GetTick>
 8001944:	4602      	mov	r2, r0
 8001946:	693b      	ldr	r3, [r7, #16]
 8001948:	1ad3      	subs	r3, r2, r3
 800194a:	2b64      	cmp	r3, #100	; 0x64
 800194c:	d901      	bls.n	8001952 <HAL_RCC_OscConfig+0xf6>
          {
            return HAL_TIMEOUT;
 800194e:	2303      	movs	r3, #3
 8001950:	e1fa      	b.n	8001d48 <HAL_RCC_OscConfig+0x4ec>
        while (__HAL_RCC_GET_FLAG(RCC_FLAG_HSERDY) == RESET)
 8001952:	4b5d      	ldr	r3, [pc, #372]	; (8001ac8 <HAL_RCC_OscConfig+0x26c>)
 8001954:	681b      	ldr	r3, [r3, #0]
 8001956:	f403 3300 	and.w	r3, r3, #131072	; 0x20000
 800195a:	2b00      	cmp	r3, #0
 800195c:	d0f0      	beq.n	8001940 <HAL_RCC_OscConfig+0xe4>
 800195e:	e014      	b.n	800198a <HAL_RCC_OscConfig+0x12e>
        }
      }
      else
      {
        /* Get Start Tick */
        tickstart = HAL_GetTick();
 8001960:	f7ff fca2 	bl	80012a8 <HAL_GetTick>
 8001964:	6138      	str	r0, [r7, #16]

        /* Wait till HSE is disabled */
        while (__HAL_RCC_GET_FLAG(RCC_FLAG_HSERDY) != RESET)
 8001966:	e008      	b.n	800197a <HAL_RCC_OscConfig+0x11e>
        {
          if ((HAL_GetTick() - tickstart) > HSE_TIMEOUT_VALUE)
 8001968:	f7ff fc9e 	bl	80012a8 <HAL_GetTick>
 800196c:	4602      	mov	r2, r0
 800196e:	693b      	ldr	r3, [r7, #16]
 8001970:	1ad3      	subs	r3, r2, r3
 8001972:	2b64      	cmp	r3, #100	; 0x64
 8001974:	d901      	bls.n	800197a <HAL_RCC_OscConfig+0x11e>
          {
            return HAL_TIMEOUT;
 8001976:	2303      	movs	r3, #3
 8001978:	e1e6      	b.n	8001d48 <HAL_RCC_OscConfig+0x4ec>
        while (__HAL_RCC_GET_FLAG(RCC_FLAG_HSERDY) != RESET)
 800197a:	4b53      	ldr	r3, [pc, #332]	; (8001ac8 <HAL_RCC_OscConfig+0x26c>)
 800197c:	681b      	ldr	r3, [r3, #0]
 800197e:	f403 3300 	and.w	r3, r3, #131072	; 0x20000
 8001982:	2b00      	cmp	r3, #0
 8001984:	d1f0      	bne.n	8001968 <HAL_RCC_OscConfig+0x10c>
 8001986:	e000      	b.n	800198a <HAL_RCC_OscConfig+0x12e>
      if ((__HAL_RCC_GET_FLAG(RCC_FLAG_HSERDY) != RESET) && (RCC_OscInitStruct->HSEState == RCC_HSE_OFF))
 8001988:	bf00      	nop
        }
      }
    }
  }
  /*----------------------------- HSI Configuration --------------------------*/
  if (((RCC_OscInitStruct->OscillatorType) & RCC_OSCILLATORTYPE_HSI) == RCC_OSCILLATORTYPE_HSI)
 800198a:	687b      	ldr	r3, [r7, #4]
 800198c:	681b      	ldr	r3, [r3, #0]
 800198e:	f003 0302 	and.w	r3, r3, #2
 8001992:	2b00      	cmp	r3, #0
 8001994:	d063      	beq.n	8001a5e <HAL_RCC_OscConfig+0x202>
    /* Check the parameters */
    assert_param(IS_RCC_HSI(RCC_OscInitStruct->HSIState));
    assert_param(IS_RCC_CALIBRATION_VALUE(RCC_OscInitStruct->HSICalibrationValue));

    /* Check if HSI is used as system clock or as PLL source when PLL is selected as system clock */
    if ((__HAL_RCC_GET_SYSCLK_SOURCE() == RCC_SYSCLKSOURCE_STATUS_HSI)
 8001996:	4b4c      	ldr	r3, [pc, #304]	; (8001ac8 <HAL_RCC_OscConfig+0x26c>)
 8001998:	685b      	ldr	r3, [r3, #4]
 800199a:	f003 030c 	and.w	r3, r3, #12
 800199e:	2b00      	cmp	r3, #0
 80019a0:	d00b      	beq.n	80019ba <HAL_RCC_OscConfig+0x15e>
        || ((__HAL_RCC_GET_SYSCLK_SOURCE() == RCC_SYSCLKSOURCE_STATUS_PLLCLK) && (__HAL_RCC_GET_PLL_OSCSOURCE() == RCC_PLLSOURCE_HSI_DIV2)))
 80019a2:	4b49      	ldr	r3, [pc, #292]	; (8001ac8 <HAL_RCC_OscConfig+0x26c>)
 80019a4:	685b      	ldr	r3, [r3, #4]
 80019a6:	f003 030c 	and.w	r3, r3, #12
 80019aa:	2b08      	cmp	r3, #8
 80019ac:	d11c      	bne.n	80019e8 <HAL_RCC_OscConfig+0x18c>
 80019ae:	4b46      	ldr	r3, [pc, #280]	; (8001ac8 <HAL_RCC_OscConfig+0x26c>)
 80019b0:	685b      	ldr	r3, [r3, #4]
 80019b2:	f403 3380 	and.w	r3, r3, #65536	; 0x10000
 80019b6:	2b00      	cmp	r3, #0
 80019b8:	d116      	bne.n	80019e8 <HAL_RCC_OscConfig+0x18c>
    {
      /* When HSI is used as system clock it will not disabled */
      if ((__HAL_RCC_GET_FLAG(RCC_FLAG_HSIRDY) != RESET) && (RCC_OscInitStruct->HSIState != RCC_HSI_ON))
 80019ba:	4b43      	ldr	r3, [pc, #268]	; (8001ac8 <HAL_RCC_OscConfig+0x26c>)
 80019bc:	681b      	ldr	r3, [r3, #0]
 80019be:	f003 0302 	and.w	r3, r3, #2
 80019c2:	2b00      	cmp	r3, #0
 80019c4:	d005      	beq.n	80019d2 <HAL_RCC_OscConfig+0x176>
 80019c6:	687b      	ldr	r3, [r7, #4]
 80019c8:	691b      	ldr	r3, [r3, #16]
 80019ca:	2b01      	cmp	r3, #1
 80019cc:	d001      	beq.n	80019d2 <HAL_RCC_OscConfig+0x176>
      {
        return HAL_ERROR;
 80019ce:	2301      	movs	r3, #1
 80019d0:	e1ba      	b.n	8001d48 <HAL_RCC_OscConfig+0x4ec>
      }
      /* Otherwise, just the calibration is allowed */
      else
      {
        /* Adjusts the Internal High Speed oscillator (HSI) calibration value.*/
        __HAL_RCC_HSI_CALIBRATIONVALUE_ADJUST(RCC_OscInitStruct->HSICalibrationValue);
 80019d2:	4b3d      	ldr	r3, [pc, #244]	; (8001ac8 <HAL_RCC_OscConfig+0x26c>)
 80019d4:	681b      	ldr	r3, [r3, #0]
 80019d6:	f023 02f8 	bic.w	r2, r3, #248	; 0xf8
 80019da:	687b      	ldr	r3, [r7, #4]
 80019dc:	695b      	ldr	r3, [r3, #20]
 80019de:	00db      	lsls	r3, r3, #3
 80019e0:	4939      	ldr	r1, [pc, #228]	; (8001ac8 <HAL_RCC_OscConfig+0x26c>)
 80019e2:	4313      	orrs	r3, r2
 80019e4:	600b      	str	r3, [r1, #0]
      if ((__HAL_RCC_GET_FLAG(RCC_FLAG_HSIRDY) != RESET) && (RCC_OscInitStruct->HSIState != RCC_HSI_ON))
 80019e6:	e03a      	b.n	8001a5e <HAL_RCC_OscConfig+0x202>
      }
    }
    else
    {
      /* Check the HSI State */
      if (RCC_OscInitStruct->HSIState != RCC_HSI_OFF)
 80019e8:	687b      	ldr	r3, [r7, #4]
 80019ea:	691b      	ldr	r3, [r3, #16]
 80019ec:	2b00      	cmp	r3, #0
 80019ee:	d020      	beq.n	8001a32 <HAL_RCC_OscConfig+0x1d6>
      {
        /* Enable the Internal High Speed oscillator (HSI). */
        __HAL_RCC_HSI_ENABLE();
 80019f0:	4b36      	ldr	r3, [pc, #216]	; (8001acc <HAL_RCC_OscConfig+0x270>)
 80019f2:	2201      	movs	r2, #1
 80019f4:	601a      	str	r2, [r3, #0]

        /* Get Start Tick */
        tickstart = HAL_GetTick();
 80019f6:	f7ff fc57 	bl	80012a8 <HAL_GetTick>
 80019fa:	6138      	str	r0, [r7, #16]

        /* Wait till HSI is ready */
        while (__HAL_RCC_GET_FLAG(RCC_FLAG_HSIRDY) == RESET)
 80019fc:	e008      	b.n	8001a10 <HAL_RCC_OscConfig+0x1b4>
        {
          if ((HAL_GetTick() - tickstart) > HSI_TIMEOUT_VALUE)
 80019fe:	f7ff fc53 	bl	80012a8 <HAL_GetTick>
 8001a02:	4602      	mov	r2, r0
 8001a04:	693b      	ldr	r3, [r7, #16]
 8001a06:	1ad3      	subs	r3, r2, r3
 8001a08:	2b02      	cmp	r3, #2
 8001a0a:	d901      	bls.n	8001a10 <HAL_RCC_OscConfig+0x1b4>
          {
            return HAL_TIMEOUT;
 8001a0c:	2303      	movs	r3, #3
 8001a0e:	e19b      	b.n	8001d48 <HAL_RCC_OscConfig+0x4ec>
        while (__HAL_RCC_GET_FLAG(RCC_FLAG_HSIRDY) == RESET)
 8001a10:	4b2d      	ldr	r3, [pc, #180]	; (8001ac8 <HAL_RCC_OscConfig+0x26c>)
 8001a12:	681b      	ldr	r3, [r3, #0]
 8001a14:	f003 0302 	and.w	r3, r3, #2
 8001a18:	2b00      	cmp	r3, #0
 8001a1a:	d0f0      	beq.n	80019fe <HAL_RCC_OscConfig+0x1a2>
          }
        }

        /* Adjusts the Internal High Speed oscillator (HSI) calibration value.*/
        __HAL_RCC_HSI_CALIBRATIONVALUE_ADJUST(RCC_OscInitStruct->HSICalibrationValue);
 8001a1c:	4b2a      	ldr	r3, [pc, #168]	; (8001ac8 <HAL_RCC_OscConfig+0x26c>)
 8001a1e:	681b      	ldr	r3, [r3, #0]
 8001a20:	f023 02f8 	bic.w	r2, r3, #248	; 0xf8
 8001a24:	687b      	ldr	r3, [r7, #4]
 8001a26:	695b      	ldr	r3, [r3, #20]
 8001a28:	00db      	lsls	r3, r3, #3
 8001a2a:	4927      	ldr	r1, [pc, #156]	; (8001ac8 <HAL_RCC_OscConfig+0x26c>)
 8001a2c:	4313      	orrs	r3, r2
 8001a2e:	600b      	str	r3, [r1, #0]
 8001a30:	e015      	b.n	8001a5e <HAL_RCC_OscConfig+0x202>
      }
      else
      {
        /* Disable the Internal High Speed oscillator (HSI). */
        __HAL_RCC_HSI_DISABLE();
 8001a32:	4b26      	ldr	r3, [pc, #152]	; (8001acc <HAL_RCC_OscConfig+0x270>)
 8001a34:	2200      	movs	r2, #0
 8001a36:	601a      	str	r2, [r3, #0]

        /* Get Start Tick */
        tickstart = HAL_GetTick();
 8001a38:	f7ff fc36 	bl	80012a8 <HAL_GetTick>
 8001a3c:	6138      	str	r0, [r7, #16]

        /* Wait till HSI is disabled */
        while (__HAL_RCC_GET_FLAG(RCC_FLAG_HSIRDY) != RESET)
 8001a3e:	e008      	b.n	8001a52 <HAL_RCC_OscConfig+0x1f6>
        {
          if ((HAL_GetTick() - tickstart) > HSI_TIMEOUT_VALUE)
 8001a40:	f7ff fc32 	bl	80012a8 <HAL_GetTick>
 8001a44:	4602      	mov	r2, r0
 8001a46:	693b      	ldr	r3, [r7, #16]
 8001a48:	1ad3      	subs	r3, r2, r3
 8001a4a:	2b02      	cmp	r3, #2
 8001a4c:	d901      	bls.n	8001a52 <HAL_RCC_OscConfig+0x1f6>
          {
            return HAL_TIMEOUT;
 8001a4e:	2303      	movs	r3, #3
 8001a50:	e17a      	b.n	8001d48 <HAL_RCC_OscConfig+0x4ec>
        while (__HAL_RCC_GET_FLAG(RCC_FLAG_HSIRDY) != RESET)
 8001a52:	4b1d      	ldr	r3, [pc, #116]	; (8001ac8 <HAL_RCC_OscConfig+0x26c>)
 8001a54:	681b      	ldr	r3, [r3, #0]
 8001a56:	f003 0302 	and.w	r3, r3, #2
 8001a5a:	2b00      	cmp	r3, #0
 8001a5c:	d1f0      	bne.n	8001a40 <HAL_RCC_OscConfig+0x1e4>
        }
      }
    }
  }
  /*------------------------------ LSI Configuration -------------------------*/
  if (((RCC_OscInitStruct->OscillatorType) & RCC_OSCILLATORTYPE_LSI) == RCC_OSCILLATORTYPE_LSI)
 8001a5e:	687b      	ldr	r3, [r7, #4]
 8001a60:	681b      	ldr	r3, [r3, #0]
 8001a62:	f003 0308 	and.w	r3, r3, #8
 8001a66:	2b00      	cmp	r3, #0
 8001a68:	d03a      	beq.n	8001ae0 <HAL_RCC_OscConfig+0x284>
  {
    /* Check the parameters */
    assert_param(IS_RCC_LSI(RCC_OscInitStruct->LSIState));

    /* Check the LSI State */
    if (RCC_OscInitStruct->LSIState != RCC_LSI_OFF)
 8001a6a:	687b      	ldr	r3, [r7, #4]
 8001a6c:	699b      	ldr	r3, [r3, #24]
 8001a6e:	2b00      	cmp	r3, #0
 8001a70:	d019      	beq.n	8001aa6 <HAL_RCC_OscConfig+0x24a>
    {
      /* Enable the Internal Low Speed oscillator (LSI). */
      __HAL_RCC_LSI_ENABLE();
 8001a72:	4b17      	ldr	r3, [pc, #92]	; (8001ad0 <HAL_RCC_OscConfig+0x274>)
 8001a74:	2201      	movs	r2, #1
 8001a76:	601a      	str	r2, [r3, #0]

      /* Get Start Tick */
      tickstart = HAL_GetTick();
 8001a78:	f7ff fc16 	bl	80012a8 <HAL_GetTick>
 8001a7c:	6138      	str	r0, [r7, #16]

      /* Wait till LSI is ready */
      while (__HAL_RCC_GET_FLAG(RCC_FLAG_LSIRDY) == RESET)
 8001a7e:	e008      	b.n	8001a92 <HAL_RCC_OscConfig+0x236>
      {
        if ((HAL_GetTick() - tickstart) > LSI_TIMEOUT_VALUE)
 8001a80:	f7ff fc12 	bl	80012a8 <HAL_GetTick>
 8001a84:	4602      	mov	r2, r0
 8001a86:	693b      	ldr	r3, [r7, #16]
 8001a88:	1ad3      	subs	r3, r2, r3
 8001a8a:	2b02      	cmp	r3, #2
 8001a8c:	d901      	bls.n	8001a92 <HAL_RCC_OscConfig+0x236>
        {
          return HAL_TIMEOUT;
 8001a8e:	2303      	movs	r3, #3
 8001a90:	e15a      	b.n	8001d48 <HAL_RCC_OscConfig+0x4ec>
      while (__HAL_RCC_GET_FLAG(RCC_FLAG_LSIRDY) == RESET)
 8001a92:	4b0d      	ldr	r3, [pc, #52]	; (8001ac8 <HAL_RCC_OscConfig+0x26c>)
 8001a94:	6a5b      	ldr	r3, [r3, #36]	; 0x24
 8001a96:	f003 0302 	and.w	r3, r3, #2
 8001a9a:	2b00      	cmp	r3, #0
 8001a9c:	d0f0      	beq.n	8001a80 <HAL_RCC_OscConfig+0x224>
        }
      }
      /*  To have a fully stabilized clock in the specified range, a software delay of 1ms
          should be added.*/
      RCC_Delay(1);
 8001a9e:	2001      	movs	r0, #1
 8001aa0:	f000 fa9a 	bl	8001fd8 <RCC_Delay>
 8001aa4:	e01c      	b.n	8001ae0 <HAL_RCC_OscConfig+0x284>
    }
    else
    {
      /* Disable the Internal Low Speed oscillator (LSI). */
      __HAL_RCC_LSI_DISABLE();
 8001aa6:	4b0a      	ldr	r3, [pc, #40]	; (8001ad0 <HAL_RCC_OscConfig+0x274>)
 8001aa8:	2200      	movs	r2, #0
 8001aaa:	601a      	str	r2, [r3, #0]

      /* Get Start Tick */
      tickstart = HAL_GetTick();
 8001aac:	f7ff fbfc 	bl	80012a8 <HAL_GetTick>
 8001ab0:	6138      	str	r0, [r7, #16]

      /* Wait till LSI is disabled */
      while (__HAL_RCC_GET_FLAG(RCC_FLAG_LSIRDY) != RESET)
 8001ab2:	e00f      	b.n	8001ad4 <HAL_RCC_OscConfig+0x278>
      {
        if ((HAL_GetTick() - tickstart) > LSI_TIMEOUT_VALUE)
 8001ab4:	f7ff fbf8 	bl	80012a8 <HAL_GetTick>
 8001ab8:	4602      	mov	r2, r0
 8001aba:	693b      	ldr	r3, [r7, #16]
 8001abc:	1ad3      	subs	r3, r2, r3
 8001abe:	2b02      	cmp	r3, #2
 8001ac0:	d908      	bls.n	8001ad4 <HAL_RCC_OscConfig+0x278>
        {
          return HAL_TIMEOUT;
 8001ac2:	2303      	movs	r3, #3
 8001ac4:	e140      	b.n	8001d48 <HAL_RCC_OscConfig+0x4ec>
 8001ac6:	bf00      	nop
 8001ac8:	40021000 	.word	0x40021000
 8001acc:	42420000 	.word	0x42420000
 8001ad0:	42420480 	.word	0x42420480
      while (__HAL_RCC_GET_FLAG(RCC_FLAG_LSIRDY) != RESET)
 8001ad4:	4b9e      	ldr	r3, [pc, #632]	; (8001d50 <HAL_RCC_OscConfig+0x4f4>)
 8001ad6:	6a5b      	ldr	r3, [r3, #36]	; 0x24
 8001ad8:	f003 0302 	and.w	r3, r3, #2
 8001adc:	2b00      	cmp	r3, #0
 8001ade:	d1e9      	bne.n	8001ab4 <HAL_RCC_OscConfig+0x258>
        }
      }
    }
  }
  /*------------------------------ LSE Configuration -------------------------*/
  if (((RCC_OscInitStruct->OscillatorType) & RCC_OSCILLATORTYPE_LSE) == RCC_OSCILLATORTYPE_LSE)
 8001ae0:	687b      	ldr	r3, [r7, #4]
 8001ae2:	681b      	ldr	r3, [r3, #0]
 8001ae4:	f003 0304 	and.w	r3, r3, #4
 8001ae8:	2b00      	cmp	r3, #0
 8001aea:	f000 80a6 	beq.w	8001c3a <HAL_RCC_OscConfig+0x3de>
  {
    FlagStatus       pwrclkchanged = RESET;
 8001aee:	2300      	movs	r3, #0
 8001af0:	75fb      	strb	r3, [r7, #23]
    /* Check the parameters */
    assert_param(IS_RCC_LSE(RCC_OscInitStruct->LSEState));

    /* Update LSE configuration in Backup Domain control register    */
    /* Requires to enable write access to Backup Domain of necessary */
    if (__HAL_RCC_PWR_IS_CLK_DISABLED())
 8001af2:	4b97      	ldr	r3, [pc, #604]	; (8001d50 <HAL_RCC_OscConfig+0x4f4>)
 8001af4:	69db      	ldr	r3, [r3, #28]
 8001af6:	f003 5380 	and.w	r3, r3, #268435456	; 0x10000000
 8001afa:	2b00      	cmp	r3, #0
 8001afc:	d10d      	bne.n	8001b1a <HAL_RCC_OscConfig+0x2be>
    {
      __HAL_RCC_PWR_CLK_ENABLE();
 8001afe:	4b94      	ldr	r3, [pc, #592]	; (8001d50 <HAL_RCC_OscConfig+0x4f4>)
 8001b00:	69db      	ldr	r3, [r3, #28]
 8001b02:	4a93      	ldr	r2, [pc, #588]	; (8001d50 <HAL_RCC_OscConfig+0x4f4>)
 8001b04:	f043 5380 	orr.w	r3, r3, #268435456	; 0x10000000
 8001b08:	61d3      	str	r3, [r2, #28]
 8001b0a:	4b91      	ldr	r3, [pc, #580]	; (8001d50 <HAL_RCC_OscConfig+0x4f4>)
 8001b0c:	69db      	ldr	r3, [r3, #28]
 8001b0e:	f003 5380 	and.w	r3, r3, #268435456	; 0x10000000
 8001b12:	60bb      	str	r3, [r7, #8]
 8001b14:	68bb      	ldr	r3, [r7, #8]
      pwrclkchanged = SET;
 8001b16:	2301      	movs	r3, #1
 8001b18:	75fb      	strb	r3, [r7, #23]
    }

    if (HAL_IS_BIT_CLR(PWR->CR, PWR_CR_DBP))
 8001b1a:	4b8e      	ldr	r3, [pc, #568]	; (8001d54 <HAL_RCC_OscConfig+0x4f8>)
 8001b1c:	681b      	ldr	r3, [r3, #0]
 8001b1e:	f403 7380 	and.w	r3, r3, #256	; 0x100
 8001b22:	2b00      	cmp	r3, #0
 8001b24:	d118      	bne.n	8001b58 <HAL_RCC_OscConfig+0x2fc>
    {
      /* Enable write access to Backup domain */
      SET_BIT(PWR->CR, PWR_CR_DBP);
 8001b26:	4b8b      	ldr	r3, [pc, #556]	; (8001d54 <HAL_RCC_OscConfig+0x4f8>)
 8001b28:	681b      	ldr	r3, [r3, #0]
 8001b2a:	4a8a      	ldr	r2, [pc, #552]	; (8001d54 <HAL_RCC_OscConfig+0x4f8>)
 8001b2c:	f443 7380 	orr.w	r3, r3, #256	; 0x100
 8001b30:	6013      	str	r3, [r2, #0]

      /* Wait for Backup domain Write protection disable */
      tickstart = HAL_GetTick();
 8001b32:	f7ff fbb9 	bl	80012a8 <HAL_GetTick>
 8001b36:	6138      	str	r0, [r7, #16]

      while (HAL_IS_BIT_CLR(PWR->CR, PWR_CR_DBP))
 8001b38:	e008      	b.n	8001b4c <HAL_RCC_OscConfig+0x2f0>
      {
        if ((HAL_GetTick() - tickstart) > RCC_DBP_TIMEOUT_VALUE)
 8001b3a:	f7ff fbb5 	bl	80012a8 <HAL_GetTick>
 8001b3e:	4602      	mov	r2, r0
 8001b40:	693b      	ldr	r3, [r7, #16]
 8001b42:	1ad3      	subs	r3, r2, r3
 8001b44:	2b64      	cmp	r3, #100	; 0x64
 8001b46:	d901      	bls.n	8001b4c <HAL_RCC_OscConfig+0x2f0>
        {
          return HAL_TIMEOUT;
 8001b48:	2303      	movs	r3, #3
 8001b4a:	e0fd      	b.n	8001d48 <HAL_RCC_OscConfig+0x4ec>
      while (HAL_IS_BIT_CLR(PWR->CR, PWR_CR_DBP))
 8001b4c:	4b81      	ldr	r3, [pc, #516]	; (8001d54 <HAL_RCC_OscConfig+0x4f8>)
 8001b4e:	681b      	ldr	r3, [r3, #0]
 8001b50:	f403 7380 	and.w	r3, r3, #256	; 0x100
 8001b54:	2b00      	cmp	r3, #0
 8001b56:	d0f0      	beq.n	8001b3a <HAL_RCC_OscConfig+0x2de>
        }
      }
    }

    /* Set the new LSE configuration -----------------------------------------*/
    __HAL_RCC_LSE_CONFIG(RCC_OscInitStruct->LSEState);
 8001b58:	687b      	ldr	r3, [r7, #4]
 8001b5a:	68db      	ldr	r3, [r3, #12]
 8001b5c:	2b01      	cmp	r3, #1
 8001b5e:	d106      	bne.n	8001b6e <HAL_RCC_OscConfig+0x312>
 8001b60:	4b7b      	ldr	r3, [pc, #492]	; (8001d50 <HAL_RCC_OscConfig+0x4f4>)
 8001b62:	6a1b      	ldr	r3, [r3, #32]
 8001b64:	4a7a      	ldr	r2, [pc, #488]	; (8001d50 <HAL_RCC_OscConfig+0x4f4>)
 8001b66:	f043 0301 	orr.w	r3, r3, #1
 8001b6a:	6213      	str	r3, [r2, #32]
 8001b6c:	e02d      	b.n	8001bca <HAL_RCC_OscConfig+0x36e>
 8001b6e:	687b      	ldr	r3, [r7, #4]
 8001b70:	68db      	ldr	r3, [r3, #12]
 8001b72:	2b00      	cmp	r3, #0
 8001b74:	d10c      	bne.n	8001b90 <HAL_RCC_OscConfig+0x334>
 8001b76:	4b76      	ldr	r3, [pc, #472]	; (8001d50 <HAL_RCC_OscConfig+0x4f4>)
 8001b78:	6a1b      	ldr	r3, [r3, #32]
 8001b7a:	4a75      	ldr	r2, [pc, #468]	; (8001d50 <HAL_RCC_OscConfig+0x4f4>)
 8001b7c:	f023 0301 	bic.w	r3, r3, #1
 8001b80:	6213      	str	r3, [r2, #32]
 8001b82:	4b73      	ldr	r3, [pc, #460]	; (8001d50 <HAL_RCC_OscConfig+0x4f4>)
 8001b84:	6a1b      	ldr	r3, [r3, #32]
 8001b86:	4a72      	ldr	r2, [pc, #456]	; (8001d50 <HAL_RCC_OscConfig+0x4f4>)
 8001b88:	f023 0304 	bic.w	r3, r3, #4
 8001b8c:	6213      	str	r3, [r2, #32]
 8001b8e:	e01c      	b.n	8001bca <HAL_RCC_OscConfig+0x36e>
 8001b90:	687b      	ldr	r3, [r7, #4]
 8001b92:	68db      	ldr	r3, [r3, #12]
 8001b94:	2b05      	cmp	r3, #5
 8001b96:	d10c      	bne.n	8001bb2 <HAL_RCC_OscConfig+0x356>
 8001b98:	4b6d      	ldr	r3, [pc, #436]	; (8001d50 <HAL_RCC_OscConfig+0x4f4>)
 8001b9a:	6a1b      	ldr	r3, [r3, #32]
 8001b9c:	4a6c      	ldr	r2, [pc, #432]	; (8001d50 <HAL_RCC_OscConfig+0x4f4>)
 8001b9e:	f043 0304 	orr.w	r3, r3, #4
 8001ba2:	6213      	str	r3, [r2, #32]
 8001ba4:	4b6a      	ldr	r3, [pc, #424]	; (8001d50 <HAL_RCC_OscConfig+0x4f4>)
 8001ba6:	6a1b      	ldr	r3, [r3, #32]
 8001ba8:	4a69      	ldr	r2, [pc, #420]	; (8001d50 <HAL_RCC_OscConfig+0x4f4>)
 8001baa:	f043 0301 	orr.w	r3, r3, #1
 8001bae:	6213      	str	r3, [r2, #32]
 8001bb0:	e00b      	b.n	8001bca <HAL_RCC_OscConfig+0x36e>
 8001bb2:	4b67      	ldr	r3, [pc, #412]	; (8001d50 <HAL_RCC_OscConfig+0x4f4>)
 8001bb4:	6a1b      	ldr	r3, [r3, #32]
 8001bb6:	4a66      	ldr	r2, [pc, #408]	; (8001d50 <HAL_RCC_OscConfig+0x4f4>)
 8001bb8:	f023 0301 	bic.w	r3, r3, #1
 8001bbc:	6213      	str	r3, [r2, #32]
 8001bbe:	4b64      	ldr	r3, [pc, #400]	; (8001d50 <HAL_RCC_OscConfig+0x4f4>)
 8001bc0:	6a1b      	ldr	r3, [r3, #32]
 8001bc2:	4a63      	ldr	r2, [pc, #396]	; (8001d50 <HAL_RCC_OscConfig+0x4f4>)
 8001bc4:	f023 0304 	bic.w	r3, r3, #4
 8001bc8:	6213      	str	r3, [r2, #32]
    /* Check the LSE State */
    if (RCC_OscInitStruct->LSEState != RCC_LSE_OFF)
 8001bca:	687b      	ldr	r3, [r7, #4]
 8001bcc:	68db      	ldr	r3, [r3, #12]
 8001bce:	2b00      	cmp	r3, #0
 8001bd0:	d015      	beq.n	8001bfe <HAL_RCC_OscConfig+0x3a2>
    {
      /* Get Start Tick */
      tickstart = HAL_GetTick();
 8001bd2:	f7ff fb69 	bl	80012a8 <HAL_GetTick>
 8001bd6:	6138      	str	r0, [r7, #16]

      /* Wait till LSE is ready */
      while (__HAL_RCC_GET_FLAG(RCC_FLAG_LSERDY) == RESET)
 8001bd8:	e00a      	b.n	8001bf0 <HAL_RCC_OscConfig+0x394>
      {
        if ((HAL_GetTick() - tickstart) > RCC_LSE_TIMEOUT_VALUE)
 8001bda:	f7ff fb65 	bl	80012a8 <HAL_GetTick>
 8001bde:	4602      	mov	r2, r0
 8001be0:	693b      	ldr	r3, [r7, #16]
 8001be2:	1ad3      	subs	r3, r2, r3
 8001be4:	f241 3288 	movw	r2, #5000	; 0x1388
 8001be8:	4293      	cmp	r3, r2
 8001bea:	d901      	bls.n	8001bf0 <HAL_RCC_OscConfig+0x394>
        {
          return HAL_TIMEOUT;
 8001bec:	2303      	movs	r3, #3
 8001bee:	e0ab      	b.n	8001d48 <HAL_RCC_OscConfig+0x4ec>
      while (__HAL_RCC_GET_FLAG(RCC_FLAG_LSERDY) == RESET)
 8001bf0:	4b57      	ldr	r3, [pc, #348]	; (8001d50 <HAL_RCC_OscConfig+0x4f4>)
 8001bf2:	6a1b      	ldr	r3, [r3, #32]
 8001bf4:	f003 0302 	and.w	r3, r3, #2
 8001bf8:	2b00      	cmp	r3, #0
 8001bfa:	d0ee      	beq.n	8001bda <HAL_RCC_OscConfig+0x37e>
 8001bfc:	e014      	b.n	8001c28 <HAL_RCC_OscConfig+0x3cc>
      }
    }
    else
    {
      /* Get Start Tick */
      tickstart = HAL_GetTick();
 8001bfe:	f7ff fb53 	bl	80012a8 <HAL_GetTick>
 8001c02:	6138      	str	r0, [r7, #16]

      /* Wait till LSE is disabled */
      while (__HAL_RCC_GET_FLAG(RCC_FLAG_LSERDY) != RESET)
 8001c04:	e00a      	b.n	8001c1c <HAL_RCC_OscConfig+0x3c0>
      {
        if ((HAL_GetTick() - tickstart) > RCC_LSE_TIMEOUT_VALUE)
 8001c06:	f7ff fb4f 	bl	80012a8 <HAL_GetTick>
 8001c0a:	4602      	mov	r2, r0
 8001c0c:	693b      	ldr	r3, [r7, #16]
 8001c0e:	1ad3      	subs	r3, r2, r3
 8001c10:	f241 3288 	movw	r2, #5000	; 0x1388
 8001c14:	4293      	cmp	r3, r2
 8001c16:	d901      	bls.n	8001c1c <HAL_RCC_OscConfig+0x3c0>
        {
          return HAL_TIMEOUT;
 8001c18:	2303      	movs	r3, #3
 8001c1a:	e095      	b.n	8001d48 <HAL_RCC_OscConfig+0x4ec>
      while (__HAL_RCC_GET_FLAG(RCC_FLAG_LSERDY) != RESET)
 8001c1c:	4b4c      	ldr	r3, [pc, #304]	; (8001d50 <HAL_RCC_OscConfig+0x4f4>)
 8001c1e:	6a1b      	ldr	r3, [r3, #32]
 8001c20:	f003 0302 	and.w	r3, r3, #2
 8001c24:	2b00      	cmp	r3, #0
 8001c26:	d1ee      	bne.n	8001c06 <HAL_RCC_OscConfig+0x3aa>
        }
      }
    }

    /* Require to disable power clock if necessary */
    if (pwrclkchanged == SET)
 8001c28:	7dfb      	ldrb	r3, [r7, #23]
 8001c2a:	2b01      	cmp	r3, #1
 8001c2c:	d105      	bne.n	8001c3a <HAL_RCC_OscConfig+0x3de>
    {
      __HAL_RCC_PWR_CLK_DISABLE();
 8001c2e:	4b48      	ldr	r3, [pc, #288]	; (8001d50 <HAL_RCC_OscConfig+0x4f4>)
 8001c30:	69db      	ldr	r3, [r3, #28]
 8001c32:	4a47      	ldr	r2, [pc, #284]	; (8001d50 <HAL_RCC_OscConfig+0x4f4>)
 8001c34:	f023 5380 	bic.w	r3, r3, #268435456	; 0x10000000
 8001c38:	61d3      	str	r3, [r2, #28]

#endif /* RCC_CR_PLL2ON */
  /*-------------------------------- PLL Configuration -----------------------*/
  /* Check the parameters */
  assert_param(IS_RCC_PLL(RCC_OscInitStruct->PLL.PLLState));
  if ((RCC_OscInitStruct->PLL.PLLState) != RCC_PLL_NONE)
 8001c3a:	687b      	ldr	r3, [r7, #4]
 8001c3c:	69db      	ldr	r3, [r3, #28]
 8001c3e:	2b00      	cmp	r3, #0
 8001c40:	f000 8081 	beq.w	8001d46 <HAL_RCC_OscConfig+0x4ea>
  {
    /* Check if the PLL is used as system clock or not */
    if (__HAL_RCC_GET_SYSCLK_SOURCE() != RCC_SYSCLKSOURCE_STATUS_PLLCLK)
 8001c44:	4b42      	ldr	r3, [pc, #264]	; (8001d50 <HAL_RCC_OscConfig+0x4f4>)
 8001c46:	685b      	ldr	r3, [r3, #4]
 8001c48:	f003 030c 	and.w	r3, r3, #12
 8001c4c:	2b08      	cmp	r3, #8
 8001c4e:	d061      	beq.n	8001d14 <HAL_RCC_OscConfig+0x4b8>
    {
      if ((RCC_OscInitStruct->PLL.PLLState) == RCC_PLL_ON)
 8001c50:	687b      	ldr	r3, [r7, #4]
 8001c52:	69db      	ldr	r3, [r3, #28]
 8001c54:	2b02      	cmp	r3, #2
 8001c56:	d146      	bne.n	8001ce6 <HAL_RCC_OscConfig+0x48a>
        /* Check the parameters */
        assert_param(IS_RCC_PLLSOURCE(RCC_OscInitStruct->PLL.PLLSource));
        assert_param(IS_RCC_PLL_MUL(RCC_OscInitStruct->PLL.PLLMUL));

        /* Disable the main PLL. */
        __HAL_RCC_PLL_DISABLE();
 8001c58:	4b3f      	ldr	r3, [pc, #252]	; (8001d58 <HAL_RCC_OscConfig+0x4fc>)
 8001c5a:	2200      	movs	r2, #0
 8001c5c:	601a      	str	r2, [r3, #0]

        /* Get Start Tick */
        tickstart = HAL_GetTick();
 8001c5e:	f7ff fb23 	bl	80012a8 <HAL_GetTick>
 8001c62:	6138      	str	r0, [r7, #16]

        /* Wait till PLL is disabled */
        while (__HAL_RCC_GET_FLAG(RCC_FLAG_PLLRDY)  != RESET)
 8001c64:	e008      	b.n	8001c78 <HAL_RCC_OscConfig+0x41c>
        {
          if ((HAL_GetTick() - tickstart) > PLL_TIMEOUT_VALUE)
 8001c66:	f7ff fb1f 	bl	80012a8 <HAL_GetTick>
 8001c6a:	4602      	mov	r2, r0
 8001c6c:	693b      	ldr	r3, [r7, #16]
 8001c6e:	1ad3      	subs	r3, r2, r3
 8001c70:	2b02      	cmp	r3, #2
 8001c72:	d901      	bls.n	8001c78 <HAL_RCC_OscConfig+0x41c>
          {
            return HAL_TIMEOUT;
 8001c74:	2303      	movs	r3, #3
 8001c76:	e067      	b.n	8001d48 <HAL_RCC_OscConfig+0x4ec>
        while (__HAL_RCC_GET_FLAG(RCC_FLAG_PLLRDY)  != RESET)
 8001c78:	4b35      	ldr	r3, [pc, #212]	; (8001d50 <HAL_RCC_OscConfig+0x4f4>)
 8001c7a:	681b      	ldr	r3, [r3, #0]
 8001c7c:	f003 7300 	and.w	r3, r3, #33554432	; 0x2000000
 8001c80:	2b00      	cmp	r3, #0
 8001c82:	d1f0      	bne.n	8001c66 <HAL_RCC_OscConfig+0x40a>
          }
        }

        /* Configure the HSE prediv factor --------------------------------*/
        /* It can be written only when the PLL is disabled. Not used in PLL source is different than HSE */
        if (RCC_OscInitStruct->PLL.PLLSource == RCC_PLLSOURCE_HSE)
 8001c84:	687b      	ldr	r3, [r7, #4]
 8001c86:	6a1b      	ldr	r3, [r3, #32]
 8001c88:	f5b3 3f80 	cmp.w	r3, #65536	; 0x10000
 8001c8c:	d108      	bne.n	8001ca0 <HAL_RCC_OscConfig+0x444>
          /* Set PREDIV1 source */
          SET_BIT(RCC->CFGR2, RCC_OscInitStruct->Prediv1Source);
#endif /* RCC_CFGR2_PREDIV1SRC */

          /* Set PREDIV1 Value */
          __HAL_RCC_HSE_PREDIV_CONFIG(RCC_OscInitStruct->HSEPredivValue);
 8001c8e:	4b30      	ldr	r3, [pc, #192]	; (8001d50 <HAL_RCC_OscConfig+0x4f4>)
 8001c90:	685b      	ldr	r3, [r3, #4]
 8001c92:	f423 3200 	bic.w	r2, r3, #131072	; 0x20000
 8001c96:	687b      	ldr	r3, [r7, #4]
 8001c98:	689b      	ldr	r3, [r3, #8]
 8001c9a:	492d      	ldr	r1, [pc, #180]	; (8001d50 <HAL_RCC_OscConfig+0x4f4>)
 8001c9c:	4313      	orrs	r3, r2
 8001c9e:	604b      	str	r3, [r1, #4]
        }

        /* Configure the main PLL clock source and multiplication factors. */
        __HAL_RCC_PLL_CONFIG(RCC_OscInitStruct->PLL.PLLSource,
 8001ca0:	4b2b      	ldr	r3, [pc, #172]	; (8001d50 <HAL_RCC_OscConfig+0x4f4>)
 8001ca2:	685b      	ldr	r3, [r3, #4]
 8001ca4:	f423 1274 	bic.w	r2, r3, #3997696	; 0x3d0000
 8001ca8:	687b      	ldr	r3, [r7, #4]
 8001caa:	6a19      	ldr	r1, [r3, #32]
 8001cac:	687b      	ldr	r3, [r7, #4]
 8001cae:	6a5b      	ldr	r3, [r3, #36]	; 0x24
 8001cb0:	430b      	orrs	r3, r1
 8001cb2:	4927      	ldr	r1, [pc, #156]	; (8001d50 <HAL_RCC_OscConfig+0x4f4>)
 8001cb4:	4313      	orrs	r3, r2
 8001cb6:	604b      	str	r3, [r1, #4]
                             RCC_OscInitStruct->PLL.PLLMUL);
        /* Enable the main PLL. */
        __HAL_RCC_PLL_ENABLE();
 8001cb8:	4b27      	ldr	r3, [pc, #156]	; (8001d58 <HAL_RCC_OscConfig+0x4fc>)
 8001cba:	2201      	movs	r2, #1
 8001cbc:	601a      	str	r2, [r3, #0]

        /* Get Start Tick */
        tickstart = HAL_GetTick();
 8001cbe:	f7ff faf3 	bl	80012a8 <HAL_GetTick>
 8001cc2:	6138      	str	r0, [r7, #16]

        /* Wait till PLL is ready */
        while (__HAL_RCC_GET_FLAG(RCC_FLAG_PLLRDY)  == RESET)
 8001cc4:	e008      	b.n	8001cd8 <HAL_RCC_OscConfig+0x47c>
        {
          if ((HAL_GetTick() - tickstart) > PLL_TIMEOUT_VALUE)
 8001cc6:	f7ff faef 	bl	80012a8 <HAL_GetTick>
 8001cca:	4602      	mov	r2, r0
 8001ccc:	693b      	ldr	r3, [r7, #16]
 8001cce:	1ad3      	subs	r3, r2, r3
 8001cd0:	2b02      	cmp	r3, #2
 8001cd2:	d901      	bls.n	8001cd8 <HAL_RCC_OscConfig+0x47c>
          {
            return HAL_TIMEOUT;
 8001cd4:	2303      	movs	r3, #3
 8001cd6:	e037      	b.n	8001d48 <HAL_RCC_OscConfig+0x4ec>
        while (__HAL_RCC_GET_FLAG(RCC_FLAG_PLLRDY)  == RESET)
 8001cd8:	4b1d      	ldr	r3, [pc, #116]	; (8001d50 <HAL_RCC_OscConfig+0x4f4>)
 8001cda:	681b      	ldr	r3, [r3, #0]
 8001cdc:	f003 7300 	and.w	r3, r3, #33554432	; 0x2000000
 8001ce0:	2b00      	cmp	r3, #0
 8001ce2:	d0f0      	beq.n	8001cc6 <HAL_RCC_OscConfig+0x46a>
 8001ce4:	e02f      	b.n	8001d46 <HAL_RCC_OscConfig+0x4ea>
        }
      }
      else
      {
        /* Disable the main PLL. */
        __HAL_RCC_PLL_DISABLE();
 8001ce6:	4b1c      	ldr	r3, [pc, #112]	; (8001d58 <HAL_RCC_OscConfig+0x4fc>)
 8001ce8:	2200      	movs	r2, #0
 8001cea:	601a      	str	r2, [r3, #0]

        /* Get Start Tick */
        tickstart = HAL_GetTick();
 8001cec:	f7ff fadc 	bl	80012a8 <HAL_GetTick>
 8001cf0:	6138      	str	r0, [r7, #16]

        /* Wait till PLL is disabled */
        while (__HAL_RCC_GET_FLAG(RCC_FLAG_PLLRDY)  != RESET)
 8001cf2:	e008      	b.n	8001d06 <HAL_RCC_OscConfig+0x4aa>
        {
          if ((HAL_GetTick() - tickstart) > PLL_TIMEOUT_VALUE)
 8001cf4:	f7ff fad8 	bl	80012a8 <HAL_GetTick>
 8001cf8:	4602      	mov	r2, r0
 8001cfa:	693b      	ldr	r3, [r7, #16]
 8001cfc:	1ad3      	subs	r3, r2, r3
 8001cfe:	2b02      	cmp	r3, #2
 8001d00:	d901      	bls.n	8001d06 <HAL_RCC_OscConfig+0x4aa>
          {
            return HAL_TIMEOUT;
 8001d02:	2303      	movs	r3, #3
 8001d04:	e020      	b.n	8001d48 <HAL_RCC_OscConfig+0x4ec>
        while (__HAL_RCC_GET_FLAG(RCC_FLAG_PLLRDY)  != RESET)
 8001d06:	4b12      	ldr	r3, [pc, #72]	; (8001d50 <HAL_RCC_OscConfig+0x4f4>)
 8001d08:	681b      	ldr	r3, [r3, #0]
 8001d0a:	f003 7300 	and.w	r3, r3, #33554432	; 0x2000000
 8001d0e:	2b00      	cmp	r3, #0
 8001d10:	d1f0      	bne.n	8001cf4 <HAL_RCC_OscConfig+0x498>
 8001d12:	e018      	b.n	8001d46 <HAL_RCC_OscConfig+0x4ea>
      }
    }
    else
    {
      /* Check if there is a request to disable the PLL used as System clock source */
      if ((RCC_OscInitStruct->PLL.PLLState) == RCC_PLL_OFF)
 8001d14:	687b      	ldr	r3, [r7, #4]
 8001d16:	69db      	ldr	r3, [r3, #28]
 8001d18:	2b01      	cmp	r3, #1
 8001d1a:	d101      	bne.n	8001d20 <HAL_RCC_OscConfig+0x4c4>
      {
        return HAL_ERROR;
 8001d1c:	2301      	movs	r3, #1
 8001d1e:	e013      	b.n	8001d48 <HAL_RCC_OscConfig+0x4ec>
      }
      else
      {
        /* Do not return HAL_ERROR if request repeats the current configuration */
        pll_config = RCC->CFGR;
 8001d20:	4b0b      	ldr	r3, [pc, #44]	; (8001d50 <HAL_RCC_OscConfig+0x4f4>)
 8001d22:	685b      	ldr	r3, [r3, #4]
 8001d24:	60fb      	str	r3, [r7, #12]
        if ((READ_BIT(pll_config, RCC_CFGR_PLLSRC) != RCC_OscInitStruct->PLL.PLLSource) ||
 8001d26:	68fb      	ldr	r3, [r7, #12]
 8001d28:	f403 3280 	and.w	r2, r3, #65536	; 0x10000
 8001d2c:	687b      	ldr	r3, [r7, #4]
 8001d2e:	6a1b      	ldr	r3, [r3, #32]
 8001d30:	429a      	cmp	r2, r3
 8001d32:	d106      	bne.n	8001d42 <HAL_RCC_OscConfig+0x4e6>
            (READ_BIT(pll_config, RCC_CFGR_PLLMULL) != RCC_OscInitStruct->PLL.PLLMUL))
 8001d34:	68fb      	ldr	r3, [r7, #12]
 8001d36:	f403 1270 	and.w	r2, r3, #3932160	; 0x3c0000
 8001d3a:	687b      	ldr	r3, [r7, #4]
 8001d3c:	6a5b      	ldr	r3, [r3, #36]	; 0x24
        if ((READ_BIT(pll_config, RCC_CFGR_PLLSRC) != RCC_OscInitStruct->PLL.PLLSource) ||
 8001d3e:	429a      	cmp	r2, r3
 8001d40:	d001      	beq.n	8001d46 <HAL_RCC_OscConfig+0x4ea>
        {
          return HAL_ERROR;
 8001d42:	2301      	movs	r3, #1
 8001d44:	e000      	b.n	8001d48 <HAL_RCC_OscConfig+0x4ec>
        }
      }
    }
  }

  return HAL_OK;
 8001d46:	2300      	movs	r3, #0
}
 8001d48:	4618      	mov	r0, r3
 8001d4a:	3718      	adds	r7, #24
 8001d4c:	46bd      	mov	sp, r7
 8001d4e:	bd80      	pop	{r7, pc}
 8001d50:	40021000 	.word	0x40021000
 8001d54:	40007000 	.word	0x40007000
 8001d58:	42420060 	.word	0x42420060

08001d5c <HAL_RCC_ClockConfig>:
  *         You can use @ref HAL_RCC_GetClockConfig() function to know which clock is
  *         currently used as system clock source.
  * @retval HAL status
  */
HAL_StatusTypeDef HAL_RCC_ClockConfig(RCC_ClkInitTypeDef  *RCC_ClkInitStruct, uint32_t FLatency)
{
 8001d5c:	b580      	push	{r7, lr}
 8001d5e:	b084      	sub	sp, #16
 8001d60:	af00      	add	r7, sp, #0
 8001d62:	6078      	str	r0, [r7, #4]
 8001d64:	6039      	str	r1, [r7, #0]
  uint32_t tickstart;

  /* Check Null pointer */
  if (RCC_ClkInitStruct == NULL)
 8001d66:	687b      	ldr	r3, [r7, #4]
 8001d68:	2b00      	cmp	r3, #0
 8001d6a:	d101      	bne.n	8001d70 <HAL_RCC_ClockConfig+0x14>
  {
    return HAL_ERROR;
 8001d6c:	2301      	movs	r3, #1
 8001d6e:	e0d0      	b.n	8001f12 <HAL_RCC_ClockConfig+0x1b6>
  must be correctly programmed according to the frequency of the CPU clock
    (HCLK) of the device. */

#if defined(FLASH_ACR_LATENCY)
  /* Increasing the number of wait states because of higher CPU frequency */
  if (FLatency > __HAL_FLASH_GET_LATENCY())
 8001d70:	4b6a      	ldr	r3, [pc, #424]	; (8001f1c <HAL_RCC_ClockConfig+0x1c0>)
 8001d72:	681b      	ldr	r3, [r3, #0]
 8001d74:	f003 0307 	and.w	r3, r3, #7
 8001d78:	683a      	ldr	r2, [r7, #0]
 8001d7a:	429a      	cmp	r2, r3
 8001d7c:	d910      	bls.n	8001da0 <HAL_RCC_ClockConfig+0x44>
  {
    /* Program the new number of wait states to the LATENCY bits in the FLASH_ACR register */
    __HAL_FLASH_SET_LATENCY(FLatency);
 8001d7e:	4b67      	ldr	r3, [pc, #412]	; (8001f1c <HAL_RCC_ClockConfig+0x1c0>)
 8001d80:	681b      	ldr	r3, [r3, #0]
 8001d82:	f023 0207 	bic.w	r2, r3, #7
 8001d86:	4965      	ldr	r1, [pc, #404]	; (8001f1c <HAL_RCC_ClockConfig+0x1c0>)
 8001d88:	683b      	ldr	r3, [r7, #0]
 8001d8a:	4313      	orrs	r3, r2
 8001d8c:	600b      	str	r3, [r1, #0]

    /* Check that the new number of wait states is taken into account to access the Flash
    memory by reading the FLASH_ACR register */
    if (__HAL_FLASH_GET_LATENCY() != FLatency)
 8001d8e:	4b63      	ldr	r3, [pc, #396]	; (8001f1c <HAL_RCC_ClockConfig+0x1c0>)
 8001d90:	681b      	ldr	r3, [r3, #0]
 8001d92:	f003 0307 	and.w	r3, r3, #7
 8001d96:	683a      	ldr	r2, [r7, #0]
 8001d98:	429a      	cmp	r2, r3
 8001d9a:	d001      	beq.n	8001da0 <HAL_RCC_ClockConfig+0x44>
  {
    return HAL_ERROR;
 8001d9c:	2301      	movs	r3, #1
 8001d9e:	e0b8      	b.n	8001f12 <HAL_RCC_ClockConfig+0x1b6>
  }
}

#endif /* FLASH_ACR_LATENCY */
/*-------------------------- HCLK Configuration --------------------------*/
if (((RCC_ClkInitStruct->ClockType) & RCC_CLOCKTYPE_HCLK) == RCC_CLOCKTYPE_HCLK)
 8001da0:	687b      	ldr	r3, [r7, #4]
 8001da2:	681b      	ldr	r3, [r3, #0]
 8001da4:	f003 0302 	and.w	r3, r3, #2
 8001da8:	2b00      	cmp	r3, #0
 8001daa:	d020      	beq.n	8001dee <HAL_RCC_ClockConfig+0x92>
  {
    /* Set the highest APBx dividers in order to ensure that we do not go through
    a non-spec phase whatever we decrease or increase HCLK. */
    if (((RCC_ClkInitStruct->ClockType) & RCC_CLOCKTYPE_PCLK1) == RCC_CLOCKTYPE_PCLK1)
 8001dac:	687b      	ldr	r3, [r7, #4]
 8001dae:	681b      	ldr	r3, [r3, #0]
 8001db0:	f003 0304 	and.w	r3, r3, #4
 8001db4:	2b00      	cmp	r3, #0
 8001db6:	d005      	beq.n	8001dc4 <HAL_RCC_ClockConfig+0x68>
    {
      MODIFY_REG(RCC->CFGR, RCC_CFGR_PPRE1, RCC_HCLK_DIV16);
 8001db8:	4b59      	ldr	r3, [pc, #356]	; (8001f20 <HAL_RCC_ClockConfig+0x1c4>)
 8001dba:	685b      	ldr	r3, [r3, #4]
 8001dbc:	4a58      	ldr	r2, [pc, #352]	; (8001f20 <HAL_RCC_ClockConfig+0x1c4>)
 8001dbe:	f443 63e0 	orr.w	r3, r3, #1792	; 0x700
 8001dc2:	6053      	str	r3, [r2, #4]
    }

    if (((RCC_ClkInitStruct->ClockType) & RCC_CLOCKTYPE_PCLK2) == RCC_CLOCKTYPE_PCLK2)
 8001dc4:	687b      	ldr	r3, [r7, #4]
 8001dc6:	681b      	ldr	r3, [r3, #0]
 8001dc8:	f003 0308 	and.w	r3, r3, #8
 8001dcc:	2b00      	cmp	r3, #0
 8001dce:	d005      	beq.n	8001ddc <HAL_RCC_ClockConfig+0x80>
    {
      MODIFY_REG(RCC->CFGR, RCC_CFGR_PPRE2, (RCC_HCLK_DIV16 << 3));
 8001dd0:	4b53      	ldr	r3, [pc, #332]	; (8001f20 <HAL_RCC_ClockConfig+0x1c4>)
 8001dd2:	685b      	ldr	r3, [r3, #4]
 8001dd4:	4a52      	ldr	r2, [pc, #328]	; (8001f20 <HAL_RCC_ClockConfig+0x1c4>)
 8001dd6:	f443 5360 	orr.w	r3, r3, #14336	; 0x3800
 8001dda:	6053      	str	r3, [r2, #4]
    }

    /* Set the new HCLK clock divider */
    assert_param(IS_RCC_HCLK(RCC_ClkInitStruct->AHBCLKDivider));
    MODIFY_REG(RCC->CFGR, RCC_CFGR_HPRE, RCC_ClkInitStruct->AHBCLKDivider);
 8001ddc:	4b50      	ldr	r3, [pc, #320]	; (8001f20 <HAL_RCC_ClockConfig+0x1c4>)
 8001dde:	685b      	ldr	r3, [r3, #4]
 8001de0:	f023 02f0 	bic.w	r2, r3, #240	; 0xf0
 8001de4:	687b      	ldr	r3, [r7, #4]
 8001de6:	689b      	ldr	r3, [r3, #8]
 8001de8:	494d      	ldr	r1, [pc, #308]	; (8001f20 <HAL_RCC_ClockConfig+0x1c4>)
 8001dea:	4313      	orrs	r3, r2
 8001dec:	604b      	str	r3, [r1, #4]
  }

  /*------------------------- SYSCLK Configuration ---------------------------*/
  if (((RCC_ClkInitStruct->ClockType) & RCC_CLOCKTYPE_SYSCLK) == RCC_CLOCKTYPE_SYSCLK)
 8001dee:	687b      	ldr	r3, [r7, #4]
 8001df0:	681b      	ldr	r3, [r3, #0]
 8001df2:	f003 0301 	and.w	r3, r3, #1
 8001df6:	2b00      	cmp	r3, #0
 8001df8:	d040      	beq.n	8001e7c <HAL_RCC_ClockConfig+0x120>
  {
    assert_param(IS_RCC_SYSCLKSOURCE(RCC_ClkInitStruct->SYSCLKSource));

    /* HSE is selected as System Clock Source */
    if (RCC_ClkInitStruct->SYSCLKSource == RCC_SYSCLKSOURCE_HSE)
 8001dfa:	687b      	ldr	r3, [r7, #4]
 8001dfc:	685b      	ldr	r3, [r3, #4]
 8001dfe:	2b01      	cmp	r3, #1
 8001e00:	d107      	bne.n	8001e12 <HAL_RCC_ClockConfig+0xb6>
    {
      /* Check the HSE ready flag */
      if (__HAL_RCC_GET_FLAG(RCC_FLAG_HSERDY) == RESET)
 8001e02:	4b47      	ldr	r3, [pc, #284]	; (8001f20 <HAL_RCC_ClockConfig+0x1c4>)
 8001e04:	681b      	ldr	r3, [r3, #0]
 8001e06:	f403 3300 	and.w	r3, r3, #131072	; 0x20000
 8001e0a:	2b00      	cmp	r3, #0
 8001e0c:	d115      	bne.n	8001e3a <HAL_RCC_ClockConfig+0xde>
      {
        return HAL_ERROR;
 8001e0e:	2301      	movs	r3, #1
 8001e10:	e07f      	b.n	8001f12 <HAL_RCC_ClockConfig+0x1b6>
      }
    }
    /* PLL is selected as System Clock Source */
    else if (RCC_ClkInitStruct->SYSCLKSource == RCC_SYSCLKSOURCE_PLLCLK)
 8001e12:	687b      	ldr	r3, [r7, #4]
 8001e14:	685b      	ldr	r3, [r3, #4]
 8001e16:	2b02      	cmp	r3, #2
 8001e18:	d107      	bne.n	8001e2a <HAL_RCC_ClockConfig+0xce>
    {
      /* Check the PLL ready flag */
      if (__HAL_RCC_GET_FLAG(RCC_FLAG_PLLRDY) == RESET)
 8001e1a:	4b41      	ldr	r3, [pc, #260]	; (8001f20 <HAL_RCC_ClockConfig+0x1c4>)
 8001e1c:	681b      	ldr	r3, [r3, #0]
 8001e1e:	f003 7300 	and.w	r3, r3, #33554432	; 0x2000000
 8001e22:	2b00      	cmp	r3, #0
 8001e24:	d109      	bne.n	8001e3a <HAL_RCC_ClockConfig+0xde>
      {
        return HAL_ERROR;
 8001e26:	2301      	movs	r3, #1
 8001e28:	e073      	b.n	8001f12 <HAL_RCC_ClockConfig+0x1b6>
    }
    /* HSI is selected as System Clock Source */
    else
    {
      /* Check the HSI ready flag */
      if (__HAL_RCC_GET_FLAG(RCC_FLAG_HSIRDY) == RESET)
 8001e2a:	4b3d      	ldr	r3, [pc, #244]	; (8001f20 <HAL_RCC_ClockConfig+0x1c4>)
 8001e2c:	681b      	ldr	r3, [r3, #0]
 8001e2e:	f003 0302 	and.w	r3, r3, #2
 8001e32:	2b00      	cmp	r3, #0
 8001e34:	d101      	bne.n	8001e3a <HAL_RCC_ClockConfig+0xde>
      {
        return HAL_ERROR;
 8001e36:	2301      	movs	r3, #1
 8001e38:	e06b      	b.n	8001f12 <HAL_RCC_ClockConfig+0x1b6>
      }
    }
    __HAL_RCC_SYSCLK_CONFIG(RCC_ClkInitStruct->SYSCLKSource);
 8001e3a:	4b39      	ldr	r3, [pc, #228]	; (8001f20 <HAL_RCC_ClockConfig+0x1c4>)
 8001e3c:	685b      	ldr	r3, [r3, #4]
 8001e3e:	f023 0203 	bic.w	r2, r3, #3
 8001e42:	687b      	ldr	r3, [r7, #4]
 8001e44:	685b      	ldr	r3, [r3, #4]
 8001e46:	4936      	ldr	r1, [pc, #216]	; (8001f20 <HAL_RCC_ClockConfig+0x1c4>)
 8001e48:	4313      	orrs	r3, r2
 8001e4a:	604b      	str	r3, [r1, #4]

    /* Get Start Tick */
    tickstart = HAL_GetTick();
 8001e4c:	f7ff fa2c 	bl	80012a8 <HAL_GetTick>
 8001e50:	60f8      	str	r0, [r7, #12]

    while (__HAL_RCC_GET_SYSCLK_SOURCE() != (RCC_ClkInitStruct->SYSCLKSource << RCC_CFGR_SWS_Pos))
 8001e52:	e00a      	b.n	8001e6a <HAL_RCC_ClockConfig+0x10e>
    {
      if ((HAL_GetTick() - tickstart) > CLOCKSWITCH_TIMEOUT_VALUE)
 8001e54:	f7ff fa28 	bl	80012a8 <HAL_GetTick>
 8001e58:	4602      	mov	r2, r0
 8001e5a:	68fb      	ldr	r3, [r7, #12]
 8001e5c:	1ad3      	subs	r3, r2, r3
 8001e5e:	f241 3288 	movw	r2, #5000	; 0x1388
 8001e62:	4293      	cmp	r3, r2
 8001e64:	d901      	bls.n	8001e6a <HAL_RCC_ClockConfig+0x10e>
      {
        return HAL_TIMEOUT;
 8001e66:	2303      	movs	r3, #3
 8001e68:	e053      	b.n	8001f12 <HAL_RCC_ClockConfig+0x1b6>
    while (__HAL_RCC_GET_SYSCLK_SOURCE() != (RCC_ClkInitStruct->SYSCLKSource << RCC_CFGR_SWS_Pos))
 8001e6a:	4b2d      	ldr	r3, [pc, #180]	; (8001f20 <HAL_RCC_ClockConfig+0x1c4>)
 8001e6c:	685b      	ldr	r3, [r3, #4]
 8001e6e:	f003 020c 	and.w	r2, r3, #12
 8001e72:	687b      	ldr	r3, [r7, #4]
 8001e74:	685b      	ldr	r3, [r3, #4]
 8001e76:	009b      	lsls	r3, r3, #2
 8001e78:	429a      	cmp	r2, r3
 8001e7a:	d1eb      	bne.n	8001e54 <HAL_RCC_ClockConfig+0xf8>
    }
  }

#if defined(FLASH_ACR_LATENCY)
  /* Decreasing the number of wait states because of lower CPU frequency */
  if (FLatency < __HAL_FLASH_GET_LATENCY())
 8001e7c:	4b27      	ldr	r3, [pc, #156]	; (8001f1c <HAL_RCC_ClockConfig+0x1c0>)
 8001e7e:	681b      	ldr	r3, [r3, #0]
 8001e80:	f003 0307 	and.w	r3, r3, #7
 8001e84:	683a      	ldr	r2, [r7, #0]
 8001e86:	429a      	cmp	r2, r3
 8001e88:	d210      	bcs.n	8001eac <HAL_RCC_ClockConfig+0x150>
  {
    /* Program the new number of wait states to the LATENCY bits in the FLASH_ACR register */
    __HAL_FLASH_SET_LATENCY(FLatency);
 8001e8a:	4b24      	ldr	r3, [pc, #144]	; (8001f1c <HAL_RCC_ClockConfig+0x1c0>)
 8001e8c:	681b      	ldr	r3, [r3, #0]
 8001e8e:	f023 0207 	bic.w	r2, r3, #7
 8001e92:	4922      	ldr	r1, [pc, #136]	; (8001f1c <HAL_RCC_ClockConfig+0x1c0>)
 8001e94:	683b      	ldr	r3, [r7, #0]
 8001e96:	4313      	orrs	r3, r2
 8001e98:	600b      	str	r3, [r1, #0]

    /* Check that the new number of wait states is taken into account to access the Flash
    memory by reading the FLASH_ACR register */
    if (__HAL_FLASH_GET_LATENCY() != FLatency)
 8001e9a:	4b20      	ldr	r3, [pc, #128]	; (8001f1c <HAL_RCC_ClockConfig+0x1c0>)
 8001e9c:	681b      	ldr	r3, [r3, #0]
 8001e9e:	f003 0307 	and.w	r3, r3, #7
 8001ea2:	683a      	ldr	r2, [r7, #0]
 8001ea4:	429a      	cmp	r2, r3
 8001ea6:	d001      	beq.n	8001eac <HAL_RCC_ClockConfig+0x150>
  {
    return HAL_ERROR;
 8001ea8:	2301      	movs	r3, #1
 8001eaa:	e032      	b.n	8001f12 <HAL_RCC_ClockConfig+0x1b6>
  }
}
#endif /* FLASH_ACR_LATENCY */

/*-------------------------- PCLK1 Configuration ---------------------------*/
if (((RCC_ClkInitStruct->ClockType) & RCC_CLOCKTYPE_PCLK1) == RCC_CLOCKTYPE_PCLK1)
 8001eac:	687b      	ldr	r3, [r7, #4]
 8001eae:	681b      	ldr	r3, [r3, #0]
 8001eb0:	f003 0304 	and.w	r3, r3, #4
 8001eb4:	2b00      	cmp	r3, #0
 8001eb6:	d008      	beq.n	8001eca <HAL_RCC_ClockConfig+0x16e>
  {
    assert_param(IS_RCC_PCLK(RCC_ClkInitStruct->APB1CLKDivider));
    MODIFY_REG(RCC->CFGR, RCC_CFGR_PPRE1, RCC_ClkInitStruct->APB1CLKDivider);
 8001eb8:	4b19      	ldr	r3, [pc, #100]	; (8001f20 <HAL_RCC_ClockConfig+0x1c4>)
 8001eba:	685b      	ldr	r3, [r3, #4]
 8001ebc:	f423 62e0 	bic.w	r2, r3, #1792	; 0x700
 8001ec0:	687b      	ldr	r3, [r7, #4]
 8001ec2:	68db      	ldr	r3, [r3, #12]
 8001ec4:	4916      	ldr	r1, [pc, #88]	; (8001f20 <HAL_RCC_ClockConfig+0x1c4>)
 8001ec6:	4313      	orrs	r3, r2
 8001ec8:	604b      	str	r3, [r1, #4]
  }

  /*-------------------------- PCLK2 Configuration ---------------------------*/
  if (((RCC_ClkInitStruct->ClockType) & RCC_CLOCKTYPE_PCLK2) == RCC_CLOCKTYPE_PCLK2)
 8001eca:	687b      	ldr	r3, [r7, #4]
 8001ecc:	681b      	ldr	r3, [r3, #0]
 8001ece:	f003 0308 	and.w	r3, r3, #8
 8001ed2:	2b00      	cmp	r3, #0
 8001ed4:	d009      	beq.n	8001eea <HAL_RCC_ClockConfig+0x18e>
  {
    assert_param(IS_RCC_PCLK(RCC_ClkInitStruct->APB2CLKDivider));
    MODIFY_REG(RCC->CFGR, RCC_CFGR_PPRE2, ((RCC_ClkInitStruct->APB2CLKDivider) << 3));
 8001ed6:	4b12      	ldr	r3, [pc, #72]	; (8001f20 <HAL_RCC_ClockConfig+0x1c4>)
 8001ed8:	685b      	ldr	r3, [r3, #4]
 8001eda:	f423 5260 	bic.w	r2, r3, #14336	; 0x3800
 8001ede:	687b      	ldr	r3, [r7, #4]
 8001ee0:	691b      	ldr	r3, [r3, #16]
 8001ee2:	00db      	lsls	r3, r3, #3
 8001ee4:	490e      	ldr	r1, [pc, #56]	; (8001f20 <HAL_RCC_ClockConfig+0x1c4>)
 8001ee6:	4313      	orrs	r3, r2
 8001ee8:	604b      	str	r3, [r1, #4]
  }

  /* Update the SystemCoreClock global variable */
  SystemCoreClock = HAL_RCC_GetSysClockFreq() >> AHBPrescTable[(RCC->CFGR & RCC_CFGR_HPRE) >> RCC_CFGR_HPRE_Pos];
 8001eea:	f000 f821 	bl	8001f30 <HAL_RCC_GetSysClockFreq>
 8001eee:	4602      	mov	r2, r0
 8001ef0:	4b0b      	ldr	r3, [pc, #44]	; (8001f20 <HAL_RCC_ClockConfig+0x1c4>)
 8001ef2:	685b      	ldr	r3, [r3, #4]
 8001ef4:	091b      	lsrs	r3, r3, #4
 8001ef6:	f003 030f 	and.w	r3, r3, #15
 8001efa:	490a      	ldr	r1, [pc, #40]	; (8001f24 <HAL_RCC_ClockConfig+0x1c8>)
 8001efc:	5ccb      	ldrb	r3, [r1, r3]
 8001efe:	fa22 f303 	lsr.w	r3, r2, r3
 8001f02:	4a09      	ldr	r2, [pc, #36]	; (8001f28 <HAL_RCC_ClockConfig+0x1cc>)
 8001f04:	6013      	str	r3, [r2, #0]

  /* Configure the source of time base considering new system clocks settings*/
  HAL_InitTick(uwTickPrio);
 8001f06:	4b09      	ldr	r3, [pc, #36]	; (8001f2c <HAL_RCC_ClockConfig+0x1d0>)
 8001f08:	681b      	ldr	r3, [r3, #0]
 8001f0a:	4618      	mov	r0, r3
 8001f0c:	f7ff f98a 	bl	8001224 <HAL_InitTick>

  return HAL_OK;
 8001f10:	2300      	movs	r3, #0
}
 8001f12:	4618      	mov	r0, r3
 8001f14:	3710      	adds	r7, #16
 8001f16:	46bd      	mov	sp, r7
 8001f18:	bd80      	pop	{r7, pc}
 8001f1a:	bf00      	nop
 8001f1c:	40022000 	.word	0x40022000
 8001f20:	40021000 	.word	0x40021000
 8001f24:	08003034 	.word	0x08003034
 8001f28:	20000018 	.word	0x20000018
 8001f2c:	2000004c 	.word	0x2000004c

08001f30 <HAL_RCC_GetSysClockFreq>:
  *         right SYSCLK value. Otherwise, any configuration based on this function will be incorrect.
  *
  * @retval SYSCLK frequency
  */
uint32_t HAL_RCC_GetSysClockFreq(void)
{
 8001f30:	b480      	push	{r7}
 8001f32:	b087      	sub	sp, #28
 8001f34:	af00      	add	r7, sp, #0
#else
  static const uint8_t aPredivFactorTable[2U] = {1, 2};
#endif /*RCC_CFGR2_PREDIV1*/

#endif
  uint32_t tmpreg = 0U, prediv = 0U, pllclk = 0U, pllmul = 0U;
 8001f36:	2300      	movs	r3, #0
 8001f38:	60fb      	str	r3, [r7, #12]
 8001f3a:	2300      	movs	r3, #0
 8001f3c:	60bb      	str	r3, [r7, #8]
 8001f3e:	2300      	movs	r3, #0
 8001f40:	617b      	str	r3, [r7, #20]
 8001f42:	2300      	movs	r3, #0
 8001f44:	607b      	str	r3, [r7, #4]
  uint32_t sysclockfreq = 0U;
 8001f46:	2300      	movs	r3, #0
 8001f48:	613b      	str	r3, [r7, #16]
#if defined(RCC_CFGR2_PREDIV1SRC)
  uint32_t prediv2 = 0U, pll2mul = 0U;
#endif /*RCC_CFGR2_PREDIV1SRC*/

  tmpreg = RCC->CFGR;
 8001f4a:	4b1e      	ldr	r3, [pc, #120]	; (8001fc4 <HAL_RCC_GetSysClockFreq+0x94>)
 8001f4c:	685b      	ldr	r3, [r3, #4]
 8001f4e:	60fb      	str	r3, [r7, #12]

  /* Get SYSCLK source -------------------------------------------------------*/
  switch (tmpreg & RCC_CFGR_SWS)
 8001f50:	68fb      	ldr	r3, [r7, #12]
 8001f52:	f003 030c 	and.w	r3, r3, #12
 8001f56:	2b04      	cmp	r3, #4
 8001f58:	d002      	beq.n	8001f60 <HAL_RCC_GetSysClockFreq+0x30>
 8001f5a:	2b08      	cmp	r3, #8
 8001f5c:	d003      	beq.n	8001f66 <HAL_RCC_GetSysClockFreq+0x36>
 8001f5e:	e027      	b.n	8001fb0 <HAL_RCC_GetSysClockFreq+0x80>
  {
    case RCC_SYSCLKSOURCE_STATUS_HSE:  /* HSE used as system clock */
    {
      sysclockfreq = HSE_VALUE;
 8001f60:	4b19      	ldr	r3, [pc, #100]	; (8001fc8 <HAL_RCC_GetSysClockFreq+0x98>)
 8001f62:	613b      	str	r3, [r7, #16]
      break;
 8001f64:	e027      	b.n	8001fb6 <HAL_RCC_GetSysClockFreq+0x86>
    }
    case RCC_SYSCLKSOURCE_STATUS_PLLCLK:  /* PLL used as system clock */
    {
      pllmul = aPLLMULFactorTable[(uint32_t)(tmpreg & RCC_CFGR_PLLMULL) >> RCC_CFGR_PLLMULL_Pos];
 8001f66:	68fb      	ldr	r3, [r7, #12]
 8001f68:	0c9b      	lsrs	r3, r3, #18
 8001f6a:	f003 030f 	and.w	r3, r3, #15
 8001f6e:	4a17      	ldr	r2, [pc, #92]	; (8001fcc <HAL_RCC_GetSysClockFreq+0x9c>)
 8001f70:	5cd3      	ldrb	r3, [r2, r3]
 8001f72:	607b      	str	r3, [r7, #4]
      if ((tmpreg & RCC_CFGR_PLLSRC) != RCC_PLLSOURCE_HSI_DIV2)
 8001f74:	68fb      	ldr	r3, [r7, #12]
 8001f76:	f403 3380 	and.w	r3, r3, #65536	; 0x10000
 8001f7a:	2b00      	cmp	r3, #0
 8001f7c:	d010      	beq.n	8001fa0 <HAL_RCC_GetSysClockFreq+0x70>
      {
#if defined(RCC_CFGR2_PREDIV1)
        prediv = aPredivFactorTable[(uint32_t)(RCC->CFGR2 & RCC_CFGR2_PREDIV1) >> RCC_CFGR2_PREDIV1_Pos];
#else
        prediv = aPredivFactorTable[(uint32_t)(RCC->CFGR & RCC_CFGR_PLLXTPRE) >> RCC_CFGR_PLLXTPRE_Pos];
 8001f7e:	4b11      	ldr	r3, [pc, #68]	; (8001fc4 <HAL_RCC_GetSysClockFreq+0x94>)
 8001f80:	685b      	ldr	r3, [r3, #4]
 8001f82:	0c5b      	lsrs	r3, r3, #17
 8001f84:	f003 0301 	and.w	r3, r3, #1
 8001f88:	4a11      	ldr	r2, [pc, #68]	; (8001fd0 <HAL_RCC_GetSysClockFreq+0xa0>)
 8001f8a:	5cd3      	ldrb	r3, [r2, r3]
 8001f8c:	60bb      	str	r3, [r7, #8]
        {
          pllclk = pllclk / 2;
        }
#else
        /* HSE used as PLL clock source : PLLCLK = HSE/PREDIV1 * PLLMUL */
        pllclk = (uint32_t)((HSE_VALUE  * pllmul) / prediv);
 8001f8e:	687b      	ldr	r3, [r7, #4]
 8001f90:	4a0d      	ldr	r2, [pc, #52]	; (8001fc8 <HAL_RCC_GetSysClockFreq+0x98>)
 8001f92:	fb02 f203 	mul.w	r2, r2, r3
 8001f96:	68bb      	ldr	r3, [r7, #8]
 8001f98:	fbb2 f3f3 	udiv	r3, r2, r3
 8001f9c:	617b      	str	r3, [r7, #20]
 8001f9e:	e004      	b.n	8001faa <HAL_RCC_GetSysClockFreq+0x7a>
#endif /*RCC_CFGR2_PREDIV1SRC*/
      }
      else
      {
        /* HSI used as PLL clock source : PLLCLK = HSI/2 * PLLMUL */
        pllclk = (uint32_t)((HSI_VALUE >> 1) * pllmul);
 8001fa0:	687b      	ldr	r3, [r7, #4]
 8001fa2:	4a0c      	ldr	r2, [pc, #48]	; (8001fd4 <HAL_RCC_GetSysClockFreq+0xa4>)
 8001fa4:	fb02 f303 	mul.w	r3, r2, r3
 8001fa8:	617b      	str	r3, [r7, #20]
      }
      sysclockfreq = pllclk;
 8001faa:	697b      	ldr	r3, [r7, #20]
 8001fac:	613b      	str	r3, [r7, #16]
      break;
 8001fae:	e002      	b.n	8001fb6 <HAL_RCC_GetSysClockFreq+0x86>
    }
    case RCC_SYSCLKSOURCE_STATUS_HSI:  /* HSI used as system clock source */
    default: /* HSI used as system clock */
    {
      sysclockfreq = HSI_VALUE;
 8001fb0:	4b05      	ldr	r3, [pc, #20]	; (8001fc8 <HAL_RCC_GetSysClockFreq+0x98>)
 8001fb2:	613b      	str	r3, [r7, #16]
      break;
 8001fb4:	bf00      	nop
    }
  }
  return sysclockfreq;
 8001fb6:	693b      	ldr	r3, [r7, #16]
}
 8001fb8:	4618      	mov	r0, r3
 8001fba:	371c      	adds	r7, #28
 8001fbc:	46bd      	mov	sp, r7
 8001fbe:	bc80      	pop	{r7}
 8001fc0:	4770      	bx	lr
 8001fc2:	bf00      	nop
 8001fc4:	40021000 	.word	0x40021000
 8001fc8:	007a1200 	.word	0x007a1200
 8001fcc:	08003044 	.word	0x08003044
 8001fd0:	08003054 	.word	0x08003054
 8001fd4:	003d0900 	.word	0x003d0900

08001fd8 <RCC_Delay>:
  * @brief  This function provides delay (in milliseconds) based on CPU cycles method.
  * @param  mdelay: specifies the delay time length, in milliseconds.
  * @retval None
  */
static void RCC_Delay(uint32_t mdelay)
{
 8001fd8:	b480      	push	{r7}
 8001fda:	b085      	sub	sp, #20
 8001fdc:	af00      	add	r7, sp, #0
 8001fde:	6078      	str	r0, [r7, #4]
  __IO uint32_t Delay = mdelay * (SystemCoreClock / 8U / 1000U);
 8001fe0:	4b0a      	ldr	r3, [pc, #40]	; (800200c <RCC_Delay+0x34>)
 8001fe2:	681b      	ldr	r3, [r3, #0]
 8001fe4:	4a0a      	ldr	r2, [pc, #40]	; (8002010 <RCC_Delay+0x38>)
 8001fe6:	fba2 2303 	umull	r2, r3, r2, r3
 8001fea:	0a5b      	lsrs	r3, r3, #9
 8001fec:	687a      	ldr	r2, [r7, #4]
 8001fee:	fb02 f303 	mul.w	r3, r2, r3
 8001ff2:	60fb      	str	r3, [r7, #12]
  do
  {
    __NOP();
 8001ff4:	bf00      	nop
  }
  while (Delay --);
 8001ff6:	68fb      	ldr	r3, [r7, #12]
 8001ff8:	1e5a      	subs	r2, r3, #1
 8001ffa:	60fa      	str	r2, [r7, #12]
 8001ffc:	2b00      	cmp	r3, #0
 8001ffe:	d1f9      	bne.n	8001ff4 <RCC_Delay+0x1c>
}
 8002000:	bf00      	nop
 8002002:	bf00      	nop
 8002004:	3714      	adds	r7, #20
 8002006:	46bd      	mov	sp, r7
 8002008:	bc80      	pop	{r7}
 800200a:	4770      	bx	lr
 800200c:	20000018 	.word	0x20000018
 8002010:	10624dd3 	.word	0x10624dd3

08002014 <HAL_TIM_Base_Init>:
  *         Ex: call @ref HAL_TIM_Base_DeInit() before HAL_TIM_Base_Init()
  * @param  htim TIM Base handle
  * @retval HAL status
  */
HAL_StatusTypeDef HAL_TIM_Base_Init(TIM_HandleTypeDef *htim)
{
 8002014:	b580      	push	{r7, lr}
 8002016:	b082      	sub	sp, #8
 8002018:	af00      	add	r7, sp, #0
 800201a:	6078      	str	r0, [r7, #4]
  /* Check the TIM handle allocation */
  if (htim == NULL)
 800201c:	687b      	ldr	r3, [r7, #4]
 800201e:	2b00      	cmp	r3, #0
 8002020:	d101      	bne.n	8002026 <HAL_TIM_Base_Init+0x12>
  {
    return HAL_ERROR;
 8002022:	2301      	movs	r3, #1
 8002024:	e041      	b.n	80020aa <HAL_TIM_Base_Init+0x96>
  assert_param(IS_TIM_COUNTER_MODE(htim->Init.CounterMode));
  assert_param(IS_TIM_CLOCKDIVISION_DIV(htim->Init.ClockDivision));
  assert_param(IS_TIM_PERIOD(htim->Init.Period));
  assert_param(IS_TIM_AUTORELOAD_PRELOAD(htim->Init.AutoReloadPreload));

  if (htim->State == HAL_TIM_STATE_RESET)
 8002026:	687b      	ldr	r3, [r7, #4]
 8002028:	f893 303d 	ldrb.w	r3, [r3, #61]	; 0x3d
 800202c:	b2db      	uxtb	r3, r3
 800202e:	2b00      	cmp	r3, #0
 8002030:	d106      	bne.n	8002040 <HAL_TIM_Base_Init+0x2c>
  {
    /* Allocate lock resource and initialize it */
    htim->Lock = HAL_UNLOCKED;
 8002032:	687b      	ldr	r3, [r7, #4]
 8002034:	2200      	movs	r2, #0
 8002036:	f883 203c 	strb.w	r2, [r3, #60]	; 0x3c
    }
    /* Init the low level hardware : GPIO, CLOCK, NVIC */
    htim->Base_MspInitCallback(htim);
#else
    /* Init the low level hardware : GPIO, CLOCK, NVIC */
    HAL_TIM_Base_MspInit(htim);
 800203a:	6878      	ldr	r0, [r7, #4]
 800203c:	f7fe ff74 	bl	8000f28 <HAL_TIM_Base_MspInit>
#endif /* USE_HAL_TIM_REGISTER_CALLBACKS */
  }

  /* Set the TIM state */
  htim->State = HAL_TIM_STATE_BUSY;
 8002040:	687b      	ldr	r3, [r7, #4]
 8002042:	2202      	movs	r2, #2
 8002044:	f883 203d 	strb.w	r2, [r3, #61]	; 0x3d

  /* Set the Time Base configuration */
  TIM_Base_SetConfig(htim->Instance, &htim->Init);
 8002048:	687b      	ldr	r3, [r7, #4]
 800204a:	681a      	ldr	r2, [r3, #0]
 800204c:	687b      	ldr	r3, [r7, #4]
 800204e:	3304      	adds	r3, #4
 8002050:	4619      	mov	r1, r3
 8002052:	4610      	mov	r0, r2
 8002054:	f000 fa56 	bl	8002504 <TIM_Base_SetConfig>

  /* Initialize the DMA burst operation state */
  htim->DMABurstState = HAL_DMA_BURST_STATE_READY;
 8002058:	687b      	ldr	r3, [r7, #4]
 800205a:	2201      	movs	r2, #1
 800205c:	f883 2046 	strb.w	r2, [r3, #70]	; 0x46

  /* Initialize the TIM channels state */
  TIM_CHANNEL_STATE_SET_ALL(htim, HAL_TIM_CHANNEL_STATE_READY);
 8002060:	687b      	ldr	r3, [r7, #4]
 8002062:	2201      	movs	r2, #1
 8002064:	f883 203e 	strb.w	r2, [r3, #62]	; 0x3e
 8002068:	687b      	ldr	r3, [r7, #4]
 800206a:	2201      	movs	r2, #1
 800206c:	f883 203f 	strb.w	r2, [r3, #63]	; 0x3f
 8002070:	687b      	ldr	r3, [r7, #4]
 8002072:	2201      	movs	r2, #1
 8002074:	f883 2040 	strb.w	r2, [r3, #64]	; 0x40
 8002078:	687b      	ldr	r3, [r7, #4]
 800207a:	2201      	movs	r2, #1
 800207c:	f883 2041 	strb.w	r2, [r3, #65]	; 0x41
  TIM_CHANNEL_N_STATE_SET_ALL(htim, HAL_TIM_CHANNEL_STATE_READY);
 8002080:	687b      	ldr	r3, [r7, #4]
 8002082:	2201      	movs	r2, #1
 8002084:	f883 2042 	strb.w	r2, [r3, #66]	; 0x42
 8002088:	687b      	ldr	r3, [r7, #4]
 800208a:	2201      	movs	r2, #1
 800208c:	f883 2043 	strb.w	r2, [r3, #67]	; 0x43
 8002090:	687b      	ldr	r3, [r7, #4]
 8002092:	2201      	movs	r2, #1
 8002094:	f883 2044 	strb.w	r2, [r3, #68]	; 0x44
 8002098:	687b      	ldr	r3, [r7, #4]
 800209a:	2201      	movs	r2, #1
 800209c:	f883 2045 	strb.w	r2, [r3, #69]	; 0x45

  /* Initialize the TIM state*/
  htim->State = HAL_TIM_STATE_READY;
 80020a0:	687b      	ldr	r3, [r7, #4]
 80020a2:	2201      	movs	r2, #1
 80020a4:	f883 203d 	strb.w	r2, [r3, #61]	; 0x3d

  return HAL_OK;
 80020a8:	2300      	movs	r3, #0
}
 80020aa:	4618      	mov	r0, r3
 80020ac:	3708      	adds	r7, #8
 80020ae:	46bd      	mov	sp, r7
 80020b0:	bd80      	pop	{r7, pc}
	...

080020b4 <HAL_TIM_Base_Start_IT>:
  * @brief  Starts the TIM Base generation in interrupt mode.
  * @param  htim TIM Base handle
  * @retval HAL status
  */
HAL_StatusTypeDef HAL_TIM_Base_Start_IT(TIM_HandleTypeDef *htim)
{
 80020b4:	b480      	push	{r7}
 80020b6:	b085      	sub	sp, #20
 80020b8:	af00      	add	r7, sp, #0
 80020ba:	6078      	str	r0, [r7, #4]

  /* Check the parameters */
  assert_param(IS_TIM_INSTANCE(htim->Instance));

  /* Check the TIM state */
  if (htim->State != HAL_TIM_STATE_READY)
 80020bc:	687b      	ldr	r3, [r7, #4]
 80020be:	f893 303d 	ldrb.w	r3, [r3, #61]	; 0x3d
 80020c2:	b2db      	uxtb	r3, r3
 80020c4:	2b01      	cmp	r3, #1
 80020c6:	d001      	beq.n	80020cc <HAL_TIM_Base_Start_IT+0x18>
  {
    return HAL_ERROR;
 80020c8:	2301      	movs	r3, #1
 80020ca:	e035      	b.n	8002138 <HAL_TIM_Base_Start_IT+0x84>
  }

  /* Set the TIM state */
  htim->State = HAL_TIM_STATE_BUSY;
 80020cc:	687b      	ldr	r3, [r7, #4]
 80020ce:	2202      	movs	r2, #2
 80020d0:	f883 203d 	strb.w	r2, [r3, #61]	; 0x3d

  /* Enable the TIM Update interrupt */
  __HAL_TIM_ENABLE_IT(htim, TIM_IT_UPDATE);
 80020d4:	687b      	ldr	r3, [r7, #4]
 80020d6:	681b      	ldr	r3, [r3, #0]
 80020d8:	68da      	ldr	r2, [r3, #12]
 80020da:	687b      	ldr	r3, [r7, #4]
 80020dc:	681b      	ldr	r3, [r3, #0]
 80020de:	f042 0201 	orr.w	r2, r2, #1
 80020e2:	60da      	str	r2, [r3, #12]

  /* Enable the Peripheral, except in trigger mode where enable is automatically done with trigger */
  if (IS_TIM_SLAVE_INSTANCE(htim->Instance))
 80020e4:	687b      	ldr	r3, [r7, #4]
 80020e6:	681b      	ldr	r3, [r3, #0]
 80020e8:	4a16      	ldr	r2, [pc, #88]	; (8002144 <HAL_TIM_Base_Start_IT+0x90>)
 80020ea:	4293      	cmp	r3, r2
 80020ec:	d009      	beq.n	8002102 <HAL_TIM_Base_Start_IT+0x4e>
 80020ee:	687b      	ldr	r3, [r7, #4]
 80020f0:	681b      	ldr	r3, [r3, #0]
 80020f2:	f1b3 4f80 	cmp.w	r3, #1073741824	; 0x40000000
 80020f6:	d004      	beq.n	8002102 <HAL_TIM_Base_Start_IT+0x4e>
 80020f8:	687b      	ldr	r3, [r7, #4]
 80020fa:	681b      	ldr	r3, [r3, #0]
 80020fc:	4a12      	ldr	r2, [pc, #72]	; (8002148 <HAL_TIM_Base_Start_IT+0x94>)
 80020fe:	4293      	cmp	r3, r2
 8002100:	d111      	bne.n	8002126 <HAL_TIM_Base_Start_IT+0x72>
  {
    tmpsmcr = htim->Instance->SMCR & TIM_SMCR_SMS;
 8002102:	687b      	ldr	r3, [r7, #4]
 8002104:	681b      	ldr	r3, [r3, #0]
 8002106:	689b      	ldr	r3, [r3, #8]
 8002108:	f003 0307 	and.w	r3, r3, #7
 800210c:	60fb      	str	r3, [r7, #12]
    if (!IS_TIM_SLAVEMODE_TRIGGER_ENABLED(tmpsmcr))
 800210e:	68fb      	ldr	r3, [r7, #12]
 8002110:	2b06      	cmp	r3, #6
 8002112:	d010      	beq.n	8002136 <HAL_TIM_Base_Start_IT+0x82>
    {
      __HAL_TIM_ENABLE(htim);
 8002114:	687b      	ldr	r3, [r7, #4]
 8002116:	681b      	ldr	r3, [r3, #0]
 8002118:	681a      	ldr	r2, [r3, #0]
 800211a:	687b      	ldr	r3, [r7, #4]
 800211c:	681b      	ldr	r3, [r3, #0]
 800211e:	f042 0201 	orr.w	r2, r2, #1
 8002122:	601a      	str	r2, [r3, #0]
    if (!IS_TIM_SLAVEMODE_TRIGGER_ENABLED(tmpsmcr))
 8002124:	e007      	b.n	8002136 <HAL_TIM_Base_Start_IT+0x82>
    }
  }
  else
  {
    __HAL_TIM_ENABLE(htim);
 8002126:	687b      	ldr	r3, [r7, #4]
 8002128:	681b      	ldr	r3, [r3, #0]
 800212a:	681a      	ldr	r2, [r3, #0]
 800212c:	687b      	ldr	r3, [r7, #4]
 800212e:	681b      	ldr	r3, [r3, #0]
 8002130:	f042 0201 	orr.w	r2, r2, #1
 8002134:	601a      	str	r2, [r3, #0]
  }

  /* Return function status */
  return HAL_OK;
 8002136:	2300      	movs	r3, #0
}
 8002138:	4618      	mov	r0, r3
 800213a:	3714      	adds	r7, #20
 800213c:	46bd      	mov	sp, r7
 800213e:	bc80      	pop	{r7}
 8002140:	4770      	bx	lr
 8002142:	bf00      	nop
 8002144:	40012c00 	.word	0x40012c00
 8002148:	40000400 	.word	0x40000400

0800214c <HAL_TIM_IRQHandler>:
  * @brief  This function handles TIM interrupts requests.
  * @param  htim TIM  handle
  * @retval None
  */
void HAL_TIM_IRQHandler(TIM_HandleTypeDef *htim)
{
 800214c:	b580      	push	{r7, lr}
 800214e:	b084      	sub	sp, #16
 8002150:	af00      	add	r7, sp, #0
 8002152:	6078      	str	r0, [r7, #4]
  uint32_t itsource = htim->Instance->DIER;
 8002154:	687b      	ldr	r3, [r7, #4]
 8002156:	681b      	ldr	r3, [r3, #0]
 8002158:	68db      	ldr	r3, [r3, #12]
 800215a:	60fb      	str	r3, [r7, #12]
  uint32_t itflag   = htim->Instance->SR;
 800215c:	687b      	ldr	r3, [r7, #4]
 800215e:	681b      	ldr	r3, [r3, #0]
 8002160:	691b      	ldr	r3, [r3, #16]
 8002162:	60bb      	str	r3, [r7, #8]

  /* Capture compare 1 event */
  if ((itflag & (TIM_FLAG_CC1)) == (TIM_FLAG_CC1))
 8002164:	68bb      	ldr	r3, [r7, #8]
 8002166:	f003 0302 	and.w	r3, r3, #2
 800216a:	2b00      	cmp	r3, #0
 800216c:	d020      	beq.n	80021b0 <HAL_TIM_IRQHandler+0x64>
  {
    if ((itsource & (TIM_IT_CC1)) == (TIM_IT_CC1))
 800216e:	68fb      	ldr	r3, [r7, #12]
 8002170:	f003 0302 	and.w	r3, r3, #2
 8002174:	2b00      	cmp	r3, #0
 8002176:	d01b      	beq.n	80021b0 <HAL_TIM_IRQHandler+0x64>
    {
      {
        __HAL_TIM_CLEAR_FLAG(htim, TIM_FLAG_CC1);
 8002178:	687b      	ldr	r3, [r7, #4]
 800217a:	681b      	ldr	r3, [r3, #0]
 800217c:	f06f 0202 	mvn.w	r2, #2
 8002180:	611a      	str	r2, [r3, #16]
        htim->Channel = HAL_TIM_ACTIVE_CHANNEL_1;
 8002182:	687b      	ldr	r3, [r7, #4]
 8002184:	2201      	movs	r2, #1
 8002186:	771a      	strb	r2, [r3, #28]

        /* Input capture event */
        if ((htim->Instance->CCMR1 & TIM_CCMR1_CC1S) != 0x00U)
 8002188:	687b      	ldr	r3, [r7, #4]
 800218a:	681b      	ldr	r3, [r3, #0]
 800218c:	699b      	ldr	r3, [r3, #24]
 800218e:	f003 0303 	and.w	r3, r3, #3
 8002192:	2b00      	cmp	r3, #0
 8002194:	d003      	beq.n	800219e <HAL_TIM_IRQHandler+0x52>
        {
#if (USE_HAL_TIM_REGISTER_CALLBACKS == 1)
          htim->IC_CaptureCallback(htim);
#else
          HAL_TIM_IC_CaptureCallback(htim);
 8002196:	6878      	ldr	r0, [r7, #4]
 8002198:	f000 f998 	bl	80024cc <HAL_TIM_IC_CaptureCallback>
 800219c:	e005      	b.n	80021aa <HAL_TIM_IRQHandler+0x5e>
        {
#if (USE_HAL_TIM_REGISTER_CALLBACKS == 1)
          htim->OC_DelayElapsedCallback(htim);
          htim->PWM_PulseFinishedCallback(htim);
#else
          HAL_TIM_OC_DelayElapsedCallback(htim);
 800219e:	6878      	ldr	r0, [r7, #4]
 80021a0:	f000 f98b 	bl	80024ba <HAL_TIM_OC_DelayElapsedCallback>
          HAL_TIM_PWM_PulseFinishedCallback(htim);
 80021a4:	6878      	ldr	r0, [r7, #4]
 80021a6:	f000 f99a 	bl	80024de <HAL_TIM_PWM_PulseFinishedCallback>
#endif /* USE_HAL_TIM_REGISTER_CALLBACKS */
        }
        htim->Channel = HAL_TIM_ACTIVE_CHANNEL_CLEARED;
 80021aa:	687b      	ldr	r3, [r7, #4]
 80021ac:	2200      	movs	r2, #0
 80021ae:	771a      	strb	r2, [r3, #28]
      }
    }
  }
  /* Capture compare 2 event */
  if ((itflag & (TIM_FLAG_CC2)) == (TIM_FLAG_CC2))
 80021b0:	68bb      	ldr	r3, [r7, #8]
 80021b2:	f003 0304 	and.w	r3, r3, #4
 80021b6:	2b00      	cmp	r3, #0
 80021b8:	d020      	beq.n	80021fc <HAL_TIM_IRQHandler+0xb0>
  {
    if ((itsource & (TIM_IT_CC2)) == (TIM_IT_CC2))
 80021ba:	68fb      	ldr	r3, [r7, #12]
 80021bc:	f003 0304 	and.w	r3, r3, #4
 80021c0:	2b00      	cmp	r3, #0
 80021c2:	d01b      	beq.n	80021fc <HAL_TIM_IRQHandler+0xb0>
    {
      __HAL_TIM_CLEAR_FLAG(htim, TIM_FLAG_CC2);
 80021c4:	687b      	ldr	r3, [r7, #4]
 80021c6:	681b      	ldr	r3, [r3, #0]
 80021c8:	f06f 0204 	mvn.w	r2, #4
 80021cc:	611a      	str	r2, [r3, #16]
      htim->Channel = HAL_TIM_ACTIVE_CHANNEL_2;
 80021ce:	687b      	ldr	r3, [r7, #4]
 80021d0:	2202      	movs	r2, #2
 80021d2:	771a      	strb	r2, [r3, #28]
      /* Input capture event */
      if ((htim->Instance->CCMR1 & TIM_CCMR1_CC2S) != 0x00U)
 80021d4:	687b      	ldr	r3, [r7, #4]
 80021d6:	681b      	ldr	r3, [r3, #0]
 80021d8:	699b      	ldr	r3, [r3, #24]
 80021da:	f403 7340 	and.w	r3, r3, #768	; 0x300
 80021de:	2b00      	cmp	r3, #0
 80021e0:	d003      	beq.n	80021ea <HAL_TIM_IRQHandler+0x9e>
      {
#if (USE_HAL_TIM_REGISTER_CALLBACKS == 1)
        htim->IC_CaptureCallback(htim);
#else
        HAL_TIM_IC_CaptureCallback(htim);
 80021e2:	6878      	ldr	r0, [r7, #4]
 80021e4:	f000 f972 	bl	80024cc <HAL_TIM_IC_CaptureCallback>
 80021e8:	e005      	b.n	80021f6 <HAL_TIM_IRQHandler+0xaa>
      {
#if (USE_HAL_TIM_REGISTER_CALLBACKS == 1)
        htim->OC_DelayElapsedCallback(htim);
        htim->PWM_PulseFinishedCallback(htim);
#else
        HAL_TIM_OC_DelayElapsedCallback(htim);
 80021ea:	6878      	ldr	r0, [r7, #4]
 80021ec:	f000 f965 	bl	80024ba <HAL_TIM_OC_DelayElapsedCallback>
        HAL_TIM_PWM_PulseFinishedCallback(htim);
 80021f0:	6878      	ldr	r0, [r7, #4]
 80021f2:	f000 f974 	bl	80024de <HAL_TIM_PWM_PulseFinishedCallback>
#endif /* USE_HAL_TIM_REGISTER_CALLBACKS */
      }
      htim->Channel = HAL_TIM_ACTIVE_CHANNEL_CLEARED;
 80021f6:	687b      	ldr	r3, [r7, #4]
 80021f8:	2200      	movs	r2, #0
 80021fa:	771a      	strb	r2, [r3, #28]
    }
  }
  /* Capture compare 3 event */
  if ((itflag & (TIM_FLAG_CC3)) == (TIM_FLAG_CC3))
 80021fc:	68bb      	ldr	r3, [r7, #8]
 80021fe:	f003 0308 	and.w	r3, r3, #8
 8002202:	2b00      	cmp	r3, #0
 8002204:	d020      	beq.n	8002248 <HAL_TIM_IRQHandler+0xfc>
  {
    if ((itsource & (TIM_IT_CC3)) == (TIM_IT_CC3))
 8002206:	68fb      	ldr	r3, [r7, #12]
 8002208:	f003 0308 	and.w	r3, r3, #8
 800220c:	2b00      	cmp	r3, #0
 800220e:	d01b      	beq.n	8002248 <HAL_TIM_IRQHandler+0xfc>
    {
      __HAL_TIM_CLEAR_FLAG(htim, TIM_FLAG_CC3);
 8002210:	687b      	ldr	r3, [r7, #4]
 8002212:	681b      	ldr	r3, [r3, #0]
 8002214:	f06f 0208 	mvn.w	r2, #8
 8002218:	611a      	str	r2, [r3, #16]
      htim->Channel = HAL_TIM_ACTIVE_CHANNEL_3;
 800221a:	687b      	ldr	r3, [r7, #4]
 800221c:	2204      	movs	r2, #4
 800221e:	771a      	strb	r2, [r3, #28]
      /* Input capture event */
      if ((htim->Instance->CCMR2 & TIM_CCMR2_CC3S) != 0x00U)
 8002220:	687b      	ldr	r3, [r7, #4]
 8002222:	681b      	ldr	r3, [r3, #0]
 8002224:	69db      	ldr	r3, [r3, #28]
 8002226:	f003 0303 	and.w	r3, r3, #3
 800222a:	2b00      	cmp	r3, #0
 800222c:	d003      	beq.n	8002236 <HAL_TIM_IRQHandler+0xea>
      {
#if (USE_HAL_TIM_REGISTER_CALLBACKS == 1)
        htim->IC_CaptureCallback(htim);
#else
        HAL_TIM_IC_CaptureCallback(htim);
 800222e:	6878      	ldr	r0, [r7, #4]
 8002230:	f000 f94c 	bl	80024cc <HAL_TIM_IC_CaptureCallback>
 8002234:	e005      	b.n	8002242 <HAL_TIM_IRQHandler+0xf6>
      {
#if (USE_HAL_TIM_REGISTER_CALLBACKS == 1)
        htim->OC_DelayElapsedCallback(htim);
        htim->PWM_PulseFinishedCallback(htim);
#else
        HAL_TIM_OC_DelayElapsedCallback(htim);
 8002236:	6878      	ldr	r0, [r7, #4]
 8002238:	f000 f93f 	bl	80024ba <HAL_TIM_OC_DelayElapsedCallback>
        HAL_TIM_PWM_PulseFinishedCallback(htim);
 800223c:	6878      	ldr	r0, [r7, #4]
 800223e:	f000 f94e 	bl	80024de <HAL_TIM_PWM_PulseFinishedCallback>
#endif /* USE_HAL_TIM_REGISTER_CALLBACKS */
      }
      htim->Channel = HAL_TIM_ACTIVE_CHANNEL_CLEARED;
 8002242:	687b      	ldr	r3, [r7, #4]
 8002244:	2200      	movs	r2, #0
 8002246:	771a      	strb	r2, [r3, #28]
    }
  }
  /* Capture compare 4 event */
  if ((itflag & (TIM_FLAG_CC4)) == (TIM_FLAG_CC4))
 8002248:	68bb      	ldr	r3, [r7, #8]
 800224a:	f003 0310 	and.w	r3, r3, #16
 800224e:	2b00      	cmp	r3, #0
 8002250:	d020      	beq.n	8002294 <HAL_TIM_IRQHandler+0x148>
  {
    if ((itsource & (TIM_IT_CC4)) == (TIM_IT_CC4))
 8002252:	68fb      	ldr	r3, [r7, #12]
 8002254:	f003 0310 	and.w	r3, r3, #16
 8002258:	2b00      	cmp	r3, #0
 800225a:	d01b      	beq.n	8002294 <HAL_TIM_IRQHandler+0x148>
    {
      __HAL_TIM_CLEAR_FLAG(htim, TIM_FLAG_CC4);
 800225c:	687b      	ldr	r3, [r7, #4]
 800225e:	681b      	ldr	r3, [r3, #0]
 8002260:	f06f 0210 	mvn.w	r2, #16
 8002264:	611a      	str	r2, [r3, #16]
      htim->Channel = HAL_TIM_ACTIVE_CHANNEL_4;
 8002266:	687b      	ldr	r3, [r7, #4]
 8002268:	2208      	movs	r2, #8
 800226a:	771a      	strb	r2, [r3, #28]
      /* Input capture event */
      if ((htim->Instance->CCMR2 & TIM_CCMR2_CC4S) != 0x00U)
 800226c:	687b      	ldr	r3, [r7, #4]
 800226e:	681b      	ldr	r3, [r3, #0]
 8002270:	69db      	ldr	r3, [r3, #28]
 8002272:	f403 7340 	and.w	r3, r3, #768	; 0x300
 8002276:	2b00      	cmp	r3, #0
 8002278:	d003      	beq.n	8002282 <HAL_TIM_IRQHandler+0x136>
      {
#if (USE_HAL_TIM_REGISTER_CALLBACKS == 1)
        htim->IC_CaptureCallback(htim);
#else
        HAL_TIM_IC_CaptureCallback(htim);
 800227a:	6878      	ldr	r0, [r7, #4]
 800227c:	f000 f926 	bl	80024cc <HAL_TIM_IC_CaptureCallback>
 8002280:	e005      	b.n	800228e <HAL_TIM_IRQHandler+0x142>
      {
#if (USE_HAL_TIM_REGISTER_CALLBACKS == 1)
        htim->OC_DelayElapsedCallback(htim);
        htim->PWM_PulseFinishedCallback(htim);
#else
        HAL_TIM_OC_DelayElapsedCallback(htim);
 8002282:	6878      	ldr	r0, [r7, #4]
 8002284:	f000 f919 	bl	80024ba <HAL_TIM_OC_DelayElapsedCallback>
        HAL_TIM_PWM_PulseFinishedCallback(htim);
 8002288:	6878      	ldr	r0, [r7, #4]
 800228a:	f000 f928 	bl	80024de <HAL_TIM_PWM_PulseFinishedCallback>
#endif /* USE_HAL_TIM_REGISTER_CALLBACKS */
      }
      htim->Channel = HAL_TIM_ACTIVE_CHANNEL_CLEARED;
 800228e:	687b      	ldr	r3, [r7, #4]
 8002290:	2200      	movs	r2, #0
 8002292:	771a      	strb	r2, [r3, #28]
    }
  }
  /* TIM Update event */
  if ((itflag & (TIM_FLAG_UPDATE)) == (TIM_FLAG_UPDATE))
 8002294:	68bb      	ldr	r3, [r7, #8]
 8002296:	f003 0301 	and.w	r3, r3, #1
 800229a:	2b00      	cmp	r3, #0
 800229c:	d00c      	beq.n	80022b8 <HAL_TIM_IRQHandler+0x16c>
  {
    if ((itsource & (TIM_IT_UPDATE)) == (TIM_IT_UPDATE))
 800229e:	68fb      	ldr	r3, [r7, #12]
 80022a0:	f003 0301 	and.w	r3, r3, #1
 80022a4:	2b00      	cmp	r3, #0
 80022a6:	d007      	beq.n	80022b8 <HAL_TIM_IRQHandler+0x16c>
    {
      __HAL_TIM_CLEAR_FLAG(htim, TIM_FLAG_UPDATE);
 80022a8:	687b      	ldr	r3, [r7, #4]
 80022aa:	681b      	ldr	r3, [r3, #0]
 80022ac:	f06f 0201 	mvn.w	r2, #1
 80022b0:	611a      	str	r2, [r3, #16]
#if (USE_HAL_TIM_REGISTER_CALLBACKS == 1)
      htim->PeriodElapsedCallback(htim);
#else
      HAL_TIM_PeriodElapsedCallback(htim);
 80022b2:	6878      	ldr	r0, [r7, #4]
 80022b4:	f7fe fc44 	bl	8000b40 <HAL_TIM_PeriodElapsedCallback>
#endif /* USE_HAL_TIM_REGISTER_CALLBACKS */
    }
  }
  /* TIM Break input event */
  if ((itflag & (TIM_FLAG_BREAK)) == (TIM_FLAG_BREAK))
 80022b8:	68bb      	ldr	r3, [r7, #8]
 80022ba:	f003 0380 	and.w	r3, r3, #128	; 0x80
 80022be:	2b00      	cmp	r3, #0
 80022c0:	d00c      	beq.n	80022dc <HAL_TIM_IRQHandler+0x190>
  {
    if ((itsource & (TIM_IT_BREAK)) == (TIM_IT_BREAK))
 80022c2:	68fb      	ldr	r3, [r7, #12]
 80022c4:	f003 0380 	and.w	r3, r3, #128	; 0x80
 80022c8:	2b00      	cmp	r3, #0
 80022ca:	d007      	beq.n	80022dc <HAL_TIM_IRQHandler+0x190>
    {
      __HAL_TIM_CLEAR_FLAG(htim, TIM_FLAG_BREAK);
 80022cc:	687b      	ldr	r3, [r7, #4]
 80022ce:	681b      	ldr	r3, [r3, #0]
 80022d0:	f06f 0280 	mvn.w	r2, #128	; 0x80
 80022d4:	611a      	str	r2, [r3, #16]
#if (USE_HAL_TIM_REGISTER_CALLBACKS == 1)
      htim->BreakCallback(htim);
#else
      HAL_TIMEx_BreakCallback(htim);
 80022d6:	6878      	ldr	r0, [r7, #4]
 80022d8:	f000 fa6f 	bl	80027ba <HAL_TIMEx_BreakCallback>
#endif /* USE_HAL_TIM_REGISTER_CALLBACKS */
    }
  }
  /* TIM Trigger detection event */
  if ((itflag & (TIM_FLAG_TRIGGER)) == (TIM_FLAG_TRIGGER))
 80022dc:	68bb      	ldr	r3, [r7, #8]
 80022de:	f003 0340 	and.w	r3, r3, #64	; 0x40
 80022e2:	2b00      	cmp	r3, #0
 80022e4:	d00c      	beq.n	8002300 <HAL_TIM_IRQHandler+0x1b4>
  {
    if ((itsource & (TIM_IT_TRIGGER)) == (TIM_IT_TRIGGER))
 80022e6:	68fb      	ldr	r3, [r7, #12]
 80022e8:	f003 0340 	and.w	r3, r3, #64	; 0x40
 80022ec:	2b00      	cmp	r3, #0
 80022ee:	d007      	beq.n	8002300 <HAL_TIM_IRQHandler+0x1b4>
    {
      __HAL_TIM_CLEAR_FLAG(htim, TIM_FLAG_TRIGGER);
 80022f0:	687b      	ldr	r3, [r7, #4]
 80022f2:	681b      	ldr	r3, [r3, #0]
 80022f4:	f06f 0240 	mvn.w	r2, #64	; 0x40
 80022f8:	611a      	str	r2, [r3, #16]
#if (USE_HAL_TIM_REGISTER_CALLBACKS == 1)
      htim->TriggerCallback(htim);
#else
      HAL_TIM_TriggerCallback(htim);
 80022fa:	6878      	ldr	r0, [r7, #4]
 80022fc:	f000 f8f8 	bl	80024f0 <HAL_TIM_TriggerCallback>
#endif /* USE_HAL_TIM_REGISTER_CALLBACKS */
    }
  }
  /* TIM commutation event */
  if ((itflag & (TIM_FLAG_COM)) == (TIM_FLAG_COM))
 8002300:	68bb      	ldr	r3, [r7, #8]
 8002302:	f003 0320 	and.w	r3, r3, #32
 8002306:	2b00      	cmp	r3, #0
 8002308:	d00c      	beq.n	8002324 <HAL_TIM_IRQHandler+0x1d8>
  {
    if ((itsource & (TIM_IT_COM)) == (TIM_IT_COM))
 800230a:	68fb      	ldr	r3, [r7, #12]
 800230c:	f003 0320 	and.w	r3, r3, #32
 8002310:	2b00      	cmp	r3, #0
 8002312:	d007      	beq.n	8002324 <HAL_TIM_IRQHandler+0x1d8>
    {
      __HAL_TIM_CLEAR_FLAG(htim, TIM_FLAG_COM);
 8002314:	687b      	ldr	r3, [r7, #4]
 8002316:	681b      	ldr	r3, [r3, #0]
 8002318:	f06f 0220 	mvn.w	r2, #32
 800231c:	611a      	str	r2, [r3, #16]
#if (USE_HAL_TIM_REGISTER_CALLBACKS == 1)
      htim->CommutationCallback(htim);
#else
      HAL_TIMEx_CommutCallback(htim);
 800231e:	6878      	ldr	r0, [r7, #4]
 8002320:	f000 fa42 	bl	80027a8 <HAL_TIMEx_CommutCallback>
#endif /* USE_HAL_TIM_REGISTER_CALLBACKS */
    }
  }
}
 8002324:	bf00      	nop
 8002326:	3710      	adds	r7, #16
 8002328:	46bd      	mov	sp, r7
 800232a:	bd80      	pop	{r7, pc}

0800232c <HAL_TIM_ConfigClockSource>:
  * @param  sClockSourceConfig pointer to a TIM_ClockConfigTypeDef structure that
  *         contains the clock source information for the TIM peripheral.
  * @retval HAL status
  */
HAL_StatusTypeDef HAL_TIM_ConfigClockSource(TIM_HandleTypeDef *htim, const TIM_ClockConfigTypeDef *sClockSourceConfig)
{
 800232c:	b580      	push	{r7, lr}
 800232e:	b084      	sub	sp, #16
 8002330:	af00      	add	r7, sp, #0
 8002332:	6078      	str	r0, [r7, #4]
 8002334:	6039      	str	r1, [r7, #0]
  HAL_StatusTypeDef status = HAL_OK;
 8002336:	2300      	movs	r3, #0
 8002338:	73fb      	strb	r3, [r7, #15]
  uint32_t tmpsmcr;

  /* Process Locked */
  __HAL_LOCK(htim);
 800233a:	687b      	ldr	r3, [r7, #4]
 800233c:	f893 303c 	ldrb.w	r3, [r3, #60]	; 0x3c
 8002340:	2b01      	cmp	r3, #1
 8002342:	d101      	bne.n	8002348 <HAL_TIM_ConfigClockSource+0x1c>
 8002344:	2302      	movs	r3, #2
 8002346:	e0b4      	b.n	80024b2 <HAL_TIM_ConfigClockSource+0x186>
 8002348:	687b      	ldr	r3, [r7, #4]
 800234a:	2201      	movs	r2, #1
 800234c:	f883 203c 	strb.w	r2, [r3, #60]	; 0x3c

  htim->State = HAL_TIM_STATE_BUSY;
 8002350:	687b      	ldr	r3, [r7, #4]
 8002352:	2202      	movs	r2, #2
 8002354:	f883 203d 	strb.w	r2, [r3, #61]	; 0x3d

  /* Check the parameters */
  assert_param(IS_TIM_CLOCKSOURCE(sClockSourceConfig->ClockSource));

  /* Reset the SMS, TS, ECE, ETPS and ETRF bits */
  tmpsmcr = htim->Instance->SMCR;
 8002358:	687b      	ldr	r3, [r7, #4]
 800235a:	681b      	ldr	r3, [r3, #0]
 800235c:	689b      	ldr	r3, [r3, #8]
 800235e:	60bb      	str	r3, [r7, #8]
  tmpsmcr &= ~(TIM_SMCR_SMS | TIM_SMCR_TS);
 8002360:	68bb      	ldr	r3, [r7, #8]
 8002362:	f023 0377 	bic.w	r3, r3, #119	; 0x77
 8002366:	60bb      	str	r3, [r7, #8]
  tmpsmcr &= ~(TIM_SMCR_ETF | TIM_SMCR_ETPS | TIM_SMCR_ECE | TIM_SMCR_ETP);
 8002368:	68bb      	ldr	r3, [r7, #8]
 800236a:	f423 437f 	bic.w	r3, r3, #65280	; 0xff00
 800236e:	60bb      	str	r3, [r7, #8]
  htim->Instance->SMCR = tmpsmcr;
 8002370:	687b      	ldr	r3, [r7, #4]
 8002372:	681b      	ldr	r3, [r3, #0]
 8002374:	68ba      	ldr	r2, [r7, #8]
 8002376:	609a      	str	r2, [r3, #8]

  switch (sClockSourceConfig->ClockSource)
 8002378:	683b      	ldr	r3, [r7, #0]
 800237a:	681b      	ldr	r3, [r3, #0]
 800237c:	f5b3 5f00 	cmp.w	r3, #8192	; 0x2000
 8002380:	d03e      	beq.n	8002400 <HAL_TIM_ConfigClockSource+0xd4>
 8002382:	f5b3 5f00 	cmp.w	r3, #8192	; 0x2000
 8002386:	f200 8087 	bhi.w	8002498 <HAL_TIM_ConfigClockSource+0x16c>
 800238a:	f5b3 5f80 	cmp.w	r3, #4096	; 0x1000
 800238e:	f000 8086 	beq.w	800249e <HAL_TIM_ConfigClockSource+0x172>
 8002392:	f5b3 5f80 	cmp.w	r3, #4096	; 0x1000
 8002396:	d87f      	bhi.n	8002498 <HAL_TIM_ConfigClockSource+0x16c>
 8002398:	2b70      	cmp	r3, #112	; 0x70
 800239a:	d01a      	beq.n	80023d2 <HAL_TIM_ConfigClockSource+0xa6>
 800239c:	2b70      	cmp	r3, #112	; 0x70
 800239e:	d87b      	bhi.n	8002498 <HAL_TIM_ConfigClockSource+0x16c>
 80023a0:	2b60      	cmp	r3, #96	; 0x60
 80023a2:	d050      	beq.n	8002446 <HAL_TIM_ConfigClockSource+0x11a>
 80023a4:	2b60      	cmp	r3, #96	; 0x60
 80023a6:	d877      	bhi.n	8002498 <HAL_TIM_ConfigClockSource+0x16c>
 80023a8:	2b50      	cmp	r3, #80	; 0x50
 80023aa:	d03c      	beq.n	8002426 <HAL_TIM_ConfigClockSource+0xfa>
 80023ac:	2b50      	cmp	r3, #80	; 0x50
 80023ae:	d873      	bhi.n	8002498 <HAL_TIM_ConfigClockSource+0x16c>
 80023b0:	2b40      	cmp	r3, #64	; 0x40
 80023b2:	d058      	beq.n	8002466 <HAL_TIM_ConfigClockSource+0x13a>
 80023b4:	2b40      	cmp	r3, #64	; 0x40
 80023b6:	d86f      	bhi.n	8002498 <HAL_TIM_ConfigClockSource+0x16c>
 80023b8:	2b30      	cmp	r3, #48	; 0x30
 80023ba:	d064      	beq.n	8002486 <HAL_TIM_ConfigClockSource+0x15a>
 80023bc:	2b30      	cmp	r3, #48	; 0x30
 80023be:	d86b      	bhi.n	8002498 <HAL_TIM_ConfigClockSource+0x16c>
 80023c0:	2b20      	cmp	r3, #32
 80023c2:	d060      	beq.n	8002486 <HAL_TIM_ConfigClockSource+0x15a>
 80023c4:	2b20      	cmp	r3, #32
 80023c6:	d867      	bhi.n	8002498 <HAL_TIM_ConfigClockSource+0x16c>
 80023c8:	2b00      	cmp	r3, #0
 80023ca:	d05c      	beq.n	8002486 <HAL_TIM_ConfigClockSource+0x15a>
 80023cc:	2b10      	cmp	r3, #16
 80023ce:	d05a      	beq.n	8002486 <HAL_TIM_ConfigClockSource+0x15a>
 80023d0:	e062      	b.n	8002498 <HAL_TIM_ConfigClockSource+0x16c>
      assert_param(IS_TIM_CLOCKPRESCALER(sClockSourceConfig->ClockPrescaler));
      assert_param(IS_TIM_CLOCKPOLARITY(sClockSourceConfig->ClockPolarity));
      assert_param(IS_TIM_CLOCKFILTER(sClockSourceConfig->ClockFilter));

      /* Configure the ETR Clock source */
      TIM_ETR_SetConfig(htim->Instance,
 80023d2:	687b      	ldr	r3, [r7, #4]
 80023d4:	6818      	ldr	r0, [r3, #0]
 80023d6:	683b      	ldr	r3, [r7, #0]
 80023d8:	6899      	ldr	r1, [r3, #8]
 80023da:	683b      	ldr	r3, [r7, #0]
 80023dc:	685a      	ldr	r2, [r3, #4]
 80023de:	683b      	ldr	r3, [r7, #0]
 80023e0:	68db      	ldr	r3, [r3, #12]
 80023e2:	f000 f96a 	bl	80026ba <TIM_ETR_SetConfig>
                        sClockSourceConfig->ClockPrescaler,
                        sClockSourceConfig->ClockPolarity,
                        sClockSourceConfig->ClockFilter);

      /* Select the External clock mode1 and the ETRF trigger */
      tmpsmcr = htim->Instance->SMCR;
 80023e6:	687b      	ldr	r3, [r7, #4]
 80023e8:	681b      	ldr	r3, [r3, #0]
 80023ea:	689b      	ldr	r3, [r3, #8]
 80023ec:	60bb      	str	r3, [r7, #8]
      tmpsmcr |= (TIM_SLAVEMODE_EXTERNAL1 | TIM_CLOCKSOURCE_ETRMODE1);
 80023ee:	68bb      	ldr	r3, [r7, #8]
 80023f0:	f043 0377 	orr.w	r3, r3, #119	; 0x77
 80023f4:	60bb      	str	r3, [r7, #8]
      /* Write to TIMx SMCR */
      htim->Instance->SMCR = tmpsmcr;
 80023f6:	687b      	ldr	r3, [r7, #4]
 80023f8:	681b      	ldr	r3, [r3, #0]
 80023fa:	68ba      	ldr	r2, [r7, #8]
 80023fc:	609a      	str	r2, [r3, #8]
      break;
 80023fe:	e04f      	b.n	80024a0 <HAL_TIM_ConfigClockSource+0x174>
      assert_param(IS_TIM_CLOCKPRESCALER(sClockSourceConfig->ClockPrescaler));
      assert_param(IS_TIM_CLOCKPOLARITY(sClockSourceConfig->ClockPolarity));
      assert_param(IS_TIM_CLOCKFILTER(sClockSourceConfig->ClockFilter));

      /* Configure the ETR Clock source */
      TIM_ETR_SetConfig(htim->Instance,
 8002400:	687b      	ldr	r3, [r7, #4]
 8002402:	6818      	ldr	r0, [r3, #0]
 8002404:	683b      	ldr	r3, [r7, #0]
 8002406:	6899      	ldr	r1, [r3, #8]
 8002408:	683b      	ldr	r3, [r7, #0]
 800240a:	685a      	ldr	r2, [r3, #4]
 800240c:	683b      	ldr	r3, [r7, #0]
 800240e:	68db      	ldr	r3, [r3, #12]
 8002410:	f000 f953 	bl	80026ba <TIM_ETR_SetConfig>
                        sClockSourceConfig->ClockPrescaler,
                        sClockSourceConfig->ClockPolarity,
                        sClockSourceConfig->ClockFilter);
      /* Enable the External clock mode2 */
      htim->Instance->SMCR |= TIM_SMCR_ECE;
 8002414:	687b      	ldr	r3, [r7, #4]
 8002416:	681b      	ldr	r3, [r3, #0]
 8002418:	689a      	ldr	r2, [r3, #8]
 800241a:	687b      	ldr	r3, [r7, #4]
 800241c:	681b      	ldr	r3, [r3, #0]
 800241e:	f442 4280 	orr.w	r2, r2, #16384	; 0x4000
 8002422:	609a      	str	r2, [r3, #8]
      break;
 8002424:	e03c      	b.n	80024a0 <HAL_TIM_ConfigClockSource+0x174>

      /* Check TI1 input conditioning related parameters */
      assert_param(IS_TIM_CLOCKPOLARITY(sClockSourceConfig->ClockPolarity));
      assert_param(IS_TIM_CLOCKFILTER(sClockSourceConfig->ClockFilter));

      TIM_TI1_ConfigInputStage(htim->Instance,
 8002426:	687b      	ldr	r3, [r7, #4]
 8002428:	6818      	ldr	r0, [r3, #0]
 800242a:	683b      	ldr	r3, [r7, #0]
 800242c:	6859      	ldr	r1, [r3, #4]
 800242e:	683b      	ldr	r3, [r7, #0]
 8002430:	68db      	ldr	r3, [r3, #12]
 8002432:	461a      	mov	r2, r3
 8002434:	f000 f8ca 	bl	80025cc <TIM_TI1_ConfigInputStage>
                               sClockSourceConfig->ClockPolarity,
                               sClockSourceConfig->ClockFilter);
      TIM_ITRx_SetConfig(htim->Instance, TIM_CLOCKSOURCE_TI1);
 8002438:	687b      	ldr	r3, [r7, #4]
 800243a:	681b      	ldr	r3, [r3, #0]
 800243c:	2150      	movs	r1, #80	; 0x50
 800243e:	4618      	mov	r0, r3
 8002440:	f000 f921 	bl	8002686 <TIM_ITRx_SetConfig>
      break;
 8002444:	e02c      	b.n	80024a0 <HAL_TIM_ConfigClockSource+0x174>

      /* Check TI2 input conditioning related parameters */
      assert_param(IS_TIM_CLOCKPOLARITY(sClockSourceConfig->ClockPolarity));
      assert_param(IS_TIM_CLOCKFILTER(sClockSourceConfig->ClockFilter));

      TIM_TI2_ConfigInputStage(htim->Instance,
 8002446:	687b      	ldr	r3, [r7, #4]
 8002448:	6818      	ldr	r0, [r3, #0]
 800244a:	683b      	ldr	r3, [r7, #0]
 800244c:	6859      	ldr	r1, [r3, #4]
 800244e:	683b      	ldr	r3, [r7, #0]
 8002450:	68db      	ldr	r3, [r3, #12]
 8002452:	461a      	mov	r2, r3
 8002454:	f000 f8e8 	bl	8002628 <TIM_TI2_ConfigInputStage>
                               sClockSourceConfig->ClockPolarity,
                               sClockSourceConfig->ClockFilter);
      TIM_ITRx_SetConfig(htim->Instance, TIM_CLOCKSOURCE_TI2);
 8002458:	687b      	ldr	r3, [r7, #4]
 800245a:	681b      	ldr	r3, [r3, #0]
 800245c:	2160      	movs	r1, #96	; 0x60
 800245e:	4618      	mov	r0, r3
 8002460:	f000 f911 	bl	8002686 <TIM_ITRx_SetConfig>
      break;
 8002464:	e01c      	b.n	80024a0 <HAL_TIM_ConfigClockSource+0x174>

      /* Check TI1 input conditioning related parameters */
      assert_param(IS_TIM_CLOCKPOLARITY(sClockSourceConfig->ClockPolarity));
      assert_param(IS_TIM_CLOCKFILTER(sClockSourceConfig->ClockFilter));

      TIM_TI1_ConfigInputStage(htim->Instance,
 8002466:	687b      	ldr	r3, [r7, #4]
 8002468:	6818      	ldr	r0, [r3, #0]
 800246a:	683b      	ldr	r3, [r7, #0]
 800246c:	6859      	ldr	r1, [r3, #4]
 800246e:	683b      	ldr	r3, [r7, #0]
 8002470:	68db      	ldr	r3, [r3, #12]
 8002472:	461a      	mov	r2, r3
 8002474:	f000 f8aa 	bl	80025cc <TIM_TI1_ConfigInputStage>
                               sClockSourceConfig->ClockPolarity,
                               sClockSourceConfig->ClockFilter);
      TIM_ITRx_SetConfig(htim->Instance, TIM_CLOCKSOURCE_TI1ED);
 8002478:	687b      	ldr	r3, [r7, #4]
 800247a:	681b      	ldr	r3, [r3, #0]
 800247c:	2140      	movs	r1, #64	; 0x40
 800247e:	4618      	mov	r0, r3
 8002480:	f000 f901 	bl	8002686 <TIM_ITRx_SetConfig>
      break;
 8002484:	e00c      	b.n	80024a0 <HAL_TIM_ConfigClockSource+0x174>
    case TIM_CLOCKSOURCE_ITR3:
    {
      /* Check whether or not the timer instance supports internal trigger input */
      assert_param(IS_TIM_CLOCKSOURCE_ITRX_INSTANCE(htim->Instance));

      TIM_ITRx_SetConfig(htim->Instance, sClockSourceConfig->ClockSource);
 8002486:	687b      	ldr	r3, [r7, #4]
 8002488:	681a      	ldr	r2, [r3, #0]
 800248a:	683b      	ldr	r3, [r7, #0]
 800248c:	681b      	ldr	r3, [r3, #0]
 800248e:	4619      	mov	r1, r3
 8002490:	4610      	mov	r0, r2
 8002492:	f000 f8f8 	bl	8002686 <TIM_ITRx_SetConfig>
      break;
 8002496:	e003      	b.n	80024a0 <HAL_TIM_ConfigClockSource+0x174>
    }

    default:
      status = HAL_ERROR;
 8002498:	2301      	movs	r3, #1
 800249a:	73fb      	strb	r3, [r7, #15]
      break;
 800249c:	e000      	b.n	80024a0 <HAL_TIM_ConfigClockSource+0x174>
      break;
 800249e:	bf00      	nop
  }
  htim->State = HAL_TIM_STATE_READY;
 80024a0:	687b      	ldr	r3, [r7, #4]
 80024a2:	2201      	movs	r2, #1
 80024a4:	f883 203d 	strb.w	r2, [r3, #61]	; 0x3d

  __HAL_UNLOCK(htim);
 80024a8:	687b      	ldr	r3, [r7, #4]
 80024aa:	2200      	movs	r2, #0
 80024ac:	f883 203c 	strb.w	r2, [r3, #60]	; 0x3c

  return status;
 80024b0:	7bfb      	ldrb	r3, [r7, #15]
}
 80024b2:	4618      	mov	r0, r3
 80024b4:	3710      	adds	r7, #16
 80024b6:	46bd      	mov	sp, r7
 80024b8:	bd80      	pop	{r7, pc}

080024ba <HAL_TIM_OC_DelayElapsedCallback>:
  * @brief  Output Compare callback in non-blocking mode
  * @param  htim TIM OC handle
  * @retval None
  */
__weak void HAL_TIM_OC_DelayElapsedCallback(TIM_HandleTypeDef *htim)
{
 80024ba:	b480      	push	{r7}
 80024bc:	b083      	sub	sp, #12
 80024be:	af00      	add	r7, sp, #0
 80024c0:	6078      	str	r0, [r7, #4]
  UNUSED(htim);

  /* NOTE : This function should not be modified, when the callback is needed,
            the HAL_TIM_OC_DelayElapsedCallback could be implemented in the user file
   */
}
 80024c2:	bf00      	nop
 80024c4:	370c      	adds	r7, #12
 80024c6:	46bd      	mov	sp, r7
 80024c8:	bc80      	pop	{r7}
 80024ca:	4770      	bx	lr

080024cc <HAL_TIM_IC_CaptureCallback>:
  * @brief  Input Capture callback in non-blocking mode
  * @param  htim TIM IC handle
  * @retval None
  */
__weak void HAL_TIM_IC_CaptureCallback(TIM_HandleTypeDef *htim)
{
 80024cc:	b480      	push	{r7}
 80024ce:	b083      	sub	sp, #12
 80024d0:	af00      	add	r7, sp, #0
 80024d2:	6078      	str	r0, [r7, #4]
  UNUSED(htim);

  /* NOTE : This function should not be modified, when the callback is needed,
            the HAL_TIM_IC_CaptureCallback could be implemented in the user file
   */
}
 80024d4:	bf00      	nop
 80024d6:	370c      	adds	r7, #12
 80024d8:	46bd      	mov	sp, r7
 80024da:	bc80      	pop	{r7}
 80024dc:	4770      	bx	lr

080024de <HAL_TIM_PWM_PulseFinishedCallback>:
  * @brief  PWM Pulse finished callback in non-blocking mode
  * @param  htim TIM handle
  * @retval None
  */
__weak void HAL_TIM_PWM_PulseFinishedCallback(TIM_HandleTypeDef *htim)
{
 80024de:	b480      	push	{r7}
 80024e0:	b083      	sub	sp, #12
 80024e2:	af00      	add	r7, sp, #0
 80024e4:	6078      	str	r0, [r7, #4]
  UNUSED(htim);

  /* NOTE : This function should not be modified, when the callback is needed,
            the HAL_TIM_PWM_PulseFinishedCallback could be implemented in the user file
   */
}
 80024e6:	bf00      	nop
 80024e8:	370c      	adds	r7, #12
 80024ea:	46bd      	mov	sp, r7
 80024ec:	bc80      	pop	{r7}
 80024ee:	4770      	bx	lr

080024f0 <HAL_TIM_TriggerCallback>:
  * @brief  Hall Trigger detection callback in non-blocking mode
  * @param  htim TIM handle
  * @retval None
  */
__weak void HAL_TIM_TriggerCallback(TIM_HandleTypeDef *htim)
{
 80024f0:	b480      	push	{r7}
 80024f2:	b083      	sub	sp, #12
 80024f4:	af00      	add	r7, sp, #0
 80024f6:	6078      	str	r0, [r7, #4]
  UNUSED(htim);

  /* NOTE : This function should not be modified, when the callback is needed,
            the HAL_TIM_TriggerCallback could be implemented in the user file
   */
}
 80024f8:	bf00      	nop
 80024fa:	370c      	adds	r7, #12
 80024fc:	46bd      	mov	sp, r7
 80024fe:	bc80      	pop	{r7}
 8002500:	4770      	bx	lr
	...

08002504 <TIM_Base_SetConfig>:
  * @param  TIMx TIM peripheral
  * @param  Structure TIM Base configuration structure
  * @retval None
  */
void TIM_Base_SetConfig(TIM_TypeDef *TIMx, const TIM_Base_InitTypeDef *Structure)
{
 8002504:	b480      	push	{r7}
 8002506:	b085      	sub	sp, #20
 8002508:	af00      	add	r7, sp, #0
 800250a:	6078      	str	r0, [r7, #4]
 800250c:	6039      	str	r1, [r7, #0]
  uint32_t tmpcr1;
  tmpcr1 = TIMx->CR1;
 800250e:	687b      	ldr	r3, [r7, #4]
 8002510:	681b      	ldr	r3, [r3, #0]
 8002512:	60fb      	str	r3, [r7, #12]

  /* Set TIM Time Base Unit parameters ---------------------------------------*/
  if (IS_TIM_COUNTER_MODE_SELECT_INSTANCE(TIMx))
 8002514:	687b      	ldr	r3, [r7, #4]
 8002516:	4a2b      	ldr	r2, [pc, #172]	; (80025c4 <TIM_Base_SetConfig+0xc0>)
 8002518:	4293      	cmp	r3, r2
 800251a:	d007      	beq.n	800252c <TIM_Base_SetConfig+0x28>
 800251c:	687b      	ldr	r3, [r7, #4]
 800251e:	f1b3 4f80 	cmp.w	r3, #1073741824	; 0x40000000
 8002522:	d003      	beq.n	800252c <TIM_Base_SetConfig+0x28>
 8002524:	687b      	ldr	r3, [r7, #4]
 8002526:	4a28      	ldr	r2, [pc, #160]	; (80025c8 <TIM_Base_SetConfig+0xc4>)
 8002528:	4293      	cmp	r3, r2
 800252a:	d108      	bne.n	800253e <TIM_Base_SetConfig+0x3a>
  {
    /* Select the Counter Mode */
    tmpcr1 &= ~(TIM_CR1_DIR | TIM_CR1_CMS);
 800252c:	68fb      	ldr	r3, [r7, #12]
 800252e:	f023 0370 	bic.w	r3, r3, #112	; 0x70
 8002532:	60fb      	str	r3, [r7, #12]
    tmpcr1 |= Structure->CounterMode;
 8002534:	683b      	ldr	r3, [r7, #0]
 8002536:	685b      	ldr	r3, [r3, #4]
 8002538:	68fa      	ldr	r2, [r7, #12]
 800253a:	4313      	orrs	r3, r2
 800253c:	60fb      	str	r3, [r7, #12]
  }

  if (IS_TIM_CLOCK_DIVISION_INSTANCE(TIMx))
 800253e:	687b      	ldr	r3, [r7, #4]
 8002540:	4a20      	ldr	r2, [pc, #128]	; (80025c4 <TIM_Base_SetConfig+0xc0>)
 8002542:	4293      	cmp	r3, r2
 8002544:	d007      	beq.n	8002556 <TIM_Base_SetConfig+0x52>
 8002546:	687b      	ldr	r3, [r7, #4]
 8002548:	f1b3 4f80 	cmp.w	r3, #1073741824	; 0x40000000
 800254c:	d003      	beq.n	8002556 <TIM_Base_SetConfig+0x52>
 800254e:	687b      	ldr	r3, [r7, #4]
 8002550:	4a1d      	ldr	r2, [pc, #116]	; (80025c8 <TIM_Base_SetConfig+0xc4>)
 8002552:	4293      	cmp	r3, r2
 8002554:	d108      	bne.n	8002568 <TIM_Base_SetConfig+0x64>
  {
    /* Set the clock division */
    tmpcr1 &= ~TIM_CR1_CKD;
 8002556:	68fb      	ldr	r3, [r7, #12]
 8002558:	f423 7340 	bic.w	r3, r3, #768	; 0x300
 800255c:	60fb      	str	r3, [r7, #12]
    tmpcr1 |= (uint32_t)Structure->ClockDivision;
 800255e:	683b      	ldr	r3, [r7, #0]
 8002560:	68db      	ldr	r3, [r3, #12]
 8002562:	68fa      	ldr	r2, [r7, #12]
 8002564:	4313      	orrs	r3, r2
 8002566:	60fb      	str	r3, [r7, #12]
  }

  /* Set the auto-reload preload */
  MODIFY_REG(tmpcr1, TIM_CR1_ARPE, Structure->AutoReloadPreload);
 8002568:	68fb      	ldr	r3, [r7, #12]
 800256a:	f023 0280 	bic.w	r2, r3, #128	; 0x80
 800256e:	683b      	ldr	r3, [r7, #0]
 8002570:	695b      	ldr	r3, [r3, #20]
 8002572:	4313      	orrs	r3, r2
 8002574:	60fb      	str	r3, [r7, #12]

  TIMx->CR1 = tmpcr1;
 8002576:	687b      	ldr	r3, [r7, #4]
 8002578:	68fa      	ldr	r2, [r7, #12]
 800257a:	601a      	str	r2, [r3, #0]

  /* Set the Autoreload value */
  TIMx->ARR = (uint32_t)Structure->Period ;
 800257c:	683b      	ldr	r3, [r7, #0]
 800257e:	689a      	ldr	r2, [r3, #8]
 8002580:	687b      	ldr	r3, [r7, #4]
 8002582:	62da      	str	r2, [r3, #44]	; 0x2c

  /* Set the Prescaler value */
  TIMx->PSC = Structure->Prescaler;
 8002584:	683b      	ldr	r3, [r7, #0]
 8002586:	681a      	ldr	r2, [r3, #0]
 8002588:	687b      	ldr	r3, [r7, #4]
 800258a:	629a      	str	r2, [r3, #40]	; 0x28

  if (IS_TIM_REPETITION_COUNTER_INSTANCE(TIMx))
 800258c:	687b      	ldr	r3, [r7, #4]
 800258e:	4a0d      	ldr	r2, [pc, #52]	; (80025c4 <TIM_Base_SetConfig+0xc0>)
 8002590:	4293      	cmp	r3, r2
 8002592:	d103      	bne.n	800259c <TIM_Base_SetConfig+0x98>
  {
    /* Set the Repetition Counter value */
    TIMx->RCR = Structure->RepetitionCounter;
 8002594:	683b      	ldr	r3, [r7, #0]
 8002596:	691a      	ldr	r2, [r3, #16]
 8002598:	687b      	ldr	r3, [r7, #4]
 800259a:	631a      	str	r2, [r3, #48]	; 0x30
  }

  /* Generate an update event to reload the Prescaler
     and the repetition counter (only for advanced timer) value immediately */
  TIMx->EGR = TIM_EGR_UG;
 800259c:	687b      	ldr	r3, [r7, #4]
 800259e:	2201      	movs	r2, #1
 80025a0:	615a      	str	r2, [r3, #20]

  /* Check if the update flag is set after the Update Generation, if so clear the UIF flag */
  if (HAL_IS_BIT_SET(TIMx->SR, TIM_FLAG_UPDATE))
 80025a2:	687b      	ldr	r3, [r7, #4]
 80025a4:	691b      	ldr	r3, [r3, #16]
 80025a6:	f003 0301 	and.w	r3, r3, #1
 80025aa:	2b00      	cmp	r3, #0
 80025ac:	d005      	beq.n	80025ba <TIM_Base_SetConfig+0xb6>
  {
    /* Clear the update flag */
    CLEAR_BIT(TIMx->SR, TIM_FLAG_UPDATE);
 80025ae:	687b      	ldr	r3, [r7, #4]
 80025b0:	691b      	ldr	r3, [r3, #16]
 80025b2:	f023 0201 	bic.w	r2, r3, #1
 80025b6:	687b      	ldr	r3, [r7, #4]
 80025b8:	611a      	str	r2, [r3, #16]
  }
}
 80025ba:	bf00      	nop
 80025bc:	3714      	adds	r7, #20
 80025be:	46bd      	mov	sp, r7
 80025c0:	bc80      	pop	{r7}
 80025c2:	4770      	bx	lr
 80025c4:	40012c00 	.word	0x40012c00
 80025c8:	40000400 	.word	0x40000400

080025cc <TIM_TI1_ConfigInputStage>:
  * @param  TIM_ICFilter Specifies the Input Capture Filter.
  *          This parameter must be a value between 0x00 and 0x0F.
  * @retval None
  */
static void TIM_TI1_ConfigInputStage(TIM_TypeDef *TIMx, uint32_t TIM_ICPolarity, uint32_t TIM_ICFilter)
{
 80025cc:	b480      	push	{r7}
 80025ce:	b087      	sub	sp, #28
 80025d0:	af00      	add	r7, sp, #0
 80025d2:	60f8      	str	r0, [r7, #12]
 80025d4:	60b9      	str	r1, [r7, #8]
 80025d6:	607a      	str	r2, [r7, #4]
  uint32_t tmpccmr1;
  uint32_t tmpccer;

  /* Disable the Channel 1: Reset the CC1E Bit */
  tmpccer = TIMx->CCER;
 80025d8:	68fb      	ldr	r3, [r7, #12]
 80025da:	6a1b      	ldr	r3, [r3, #32]
 80025dc:	617b      	str	r3, [r7, #20]
  TIMx->CCER &= ~TIM_CCER_CC1E;
 80025de:	68fb      	ldr	r3, [r7, #12]
 80025e0:	6a1b      	ldr	r3, [r3, #32]
 80025e2:	f023 0201 	bic.w	r2, r3, #1
 80025e6:	68fb      	ldr	r3, [r7, #12]
 80025e8:	621a      	str	r2, [r3, #32]
  tmpccmr1 = TIMx->CCMR1;
 80025ea:	68fb      	ldr	r3, [r7, #12]
 80025ec:	699b      	ldr	r3, [r3, #24]
 80025ee:	613b      	str	r3, [r7, #16]

  /* Set the filter */
  tmpccmr1 &= ~TIM_CCMR1_IC1F;
 80025f0:	693b      	ldr	r3, [r7, #16]
 80025f2:	f023 03f0 	bic.w	r3, r3, #240	; 0xf0
 80025f6:	613b      	str	r3, [r7, #16]
  tmpccmr1 |= (TIM_ICFilter << 4U);
 80025f8:	687b      	ldr	r3, [r7, #4]
 80025fa:	011b      	lsls	r3, r3, #4
 80025fc:	693a      	ldr	r2, [r7, #16]
 80025fe:	4313      	orrs	r3, r2
 8002600:	613b      	str	r3, [r7, #16]

  /* Select the Polarity and set the CC1E Bit */
  tmpccer &= ~(TIM_CCER_CC1P | TIM_CCER_CC1NP);
 8002602:	697b      	ldr	r3, [r7, #20]
 8002604:	f023 030a 	bic.w	r3, r3, #10
 8002608:	617b      	str	r3, [r7, #20]
  tmpccer |= TIM_ICPolarity;
 800260a:	697a      	ldr	r2, [r7, #20]
 800260c:	68bb      	ldr	r3, [r7, #8]
 800260e:	4313      	orrs	r3, r2
 8002610:	617b      	str	r3, [r7, #20]

  /* Write to TIMx CCMR1 and CCER registers */
  TIMx->CCMR1 = tmpccmr1;
 8002612:	68fb      	ldr	r3, [r7, #12]
 8002614:	693a      	ldr	r2, [r7, #16]
 8002616:	619a      	str	r2, [r3, #24]
  TIMx->CCER = tmpccer;
 8002618:	68fb      	ldr	r3, [r7, #12]
 800261a:	697a      	ldr	r2, [r7, #20]
 800261c:	621a      	str	r2, [r3, #32]
}
 800261e:	bf00      	nop
 8002620:	371c      	adds	r7, #28
 8002622:	46bd      	mov	sp, r7
 8002624:	bc80      	pop	{r7}
 8002626:	4770      	bx	lr

08002628 <TIM_TI2_ConfigInputStage>:
  * @param  TIM_ICFilter Specifies the Input Capture Filter.
  *          This parameter must be a value between 0x00 and 0x0F.
  * @retval None
  */
static void TIM_TI2_ConfigInputStage(TIM_TypeDef *TIMx, uint32_t TIM_ICPolarity, uint32_t TIM_ICFilter)
{
 8002628:	b480      	push	{r7}
 800262a:	b087      	sub	sp, #28
 800262c:	af00      	add	r7, sp, #0
 800262e:	60f8      	str	r0, [r7, #12]
 8002630:	60b9      	str	r1, [r7, #8]
 8002632:	607a      	str	r2, [r7, #4]
  uint32_t tmpccmr1;
  uint32_t tmpccer;

  /* Disable the Channel 2: Reset the CC2E Bit */
  tmpccer = TIMx->CCER;
 8002634:	68fb      	ldr	r3, [r7, #12]
 8002636:	6a1b      	ldr	r3, [r3, #32]
 8002638:	617b      	str	r3, [r7, #20]
  TIMx->CCER &= ~TIM_CCER_CC2E;
 800263a:	68fb      	ldr	r3, [r7, #12]
 800263c:	6a1b      	ldr	r3, [r3, #32]
 800263e:	f023 0210 	bic.w	r2, r3, #16
 8002642:	68fb      	ldr	r3, [r7, #12]
 8002644:	621a      	str	r2, [r3, #32]
  tmpccmr1 = TIMx->CCMR1;
 8002646:	68fb      	ldr	r3, [r7, #12]
 8002648:	699b      	ldr	r3, [r3, #24]
 800264a:	613b      	str	r3, [r7, #16]

  /* Set the filter */
  tmpccmr1 &= ~TIM_CCMR1_IC2F;
 800264c:	693b      	ldr	r3, [r7, #16]
 800264e:	f423 4370 	bic.w	r3, r3, #61440	; 0xf000
 8002652:	613b      	str	r3, [r7, #16]
  tmpccmr1 |= (TIM_ICFilter << 12U);
 8002654:	687b      	ldr	r3, [r7, #4]
 8002656:	031b      	lsls	r3, r3, #12
 8002658:	693a      	ldr	r2, [r7, #16]
 800265a:	4313      	orrs	r3, r2
 800265c:	613b      	str	r3, [r7, #16]

  /* Select the Polarity and set the CC2E Bit */
  tmpccer &= ~(TIM_CCER_CC2P | TIM_CCER_CC2NP);
 800265e:	697b      	ldr	r3, [r7, #20]
 8002660:	f023 03a0 	bic.w	r3, r3, #160	; 0xa0
 8002664:	617b      	str	r3, [r7, #20]
  tmpccer |= (TIM_ICPolarity << 4U);
 8002666:	68bb      	ldr	r3, [r7, #8]
 8002668:	011b      	lsls	r3, r3, #4
 800266a:	697a      	ldr	r2, [r7, #20]
 800266c:	4313      	orrs	r3, r2
 800266e:	617b      	str	r3, [r7, #20]

  /* Write to TIMx CCMR1 and CCER registers */
  TIMx->CCMR1 = tmpccmr1 ;
 8002670:	68fb      	ldr	r3, [r7, #12]
 8002672:	693a      	ldr	r2, [r7, #16]
 8002674:	619a      	str	r2, [r3, #24]
  TIMx->CCER = tmpccer;
 8002676:	68fb      	ldr	r3, [r7, #12]
 8002678:	697a      	ldr	r2, [r7, #20]
 800267a:	621a      	str	r2, [r3, #32]
}
 800267c:	bf00      	nop
 800267e:	371c      	adds	r7, #28
 8002680:	46bd      	mov	sp, r7
 8002682:	bc80      	pop	{r7}
 8002684:	4770      	bx	lr

08002686 <TIM_ITRx_SetConfig>:
  *            @arg TIM_TS_TI2FP2: Filtered Timer Input 2
  *            @arg TIM_TS_ETRF: External Trigger input
  * @retval None
  */
static void TIM_ITRx_SetConfig(TIM_TypeDef *TIMx, uint32_t InputTriggerSource)
{
 8002686:	b480      	push	{r7}
 8002688:	b085      	sub	sp, #20
 800268a:	af00      	add	r7, sp, #0
 800268c:	6078      	str	r0, [r7, #4]
 800268e:	6039      	str	r1, [r7, #0]
  uint32_t tmpsmcr;

  /* Get the TIMx SMCR register value */
  tmpsmcr = TIMx->SMCR;
 8002690:	687b      	ldr	r3, [r7, #4]
 8002692:	689b      	ldr	r3, [r3, #8]
 8002694:	60fb      	str	r3, [r7, #12]
  /* Reset the TS Bits */
  tmpsmcr &= ~TIM_SMCR_TS;
 8002696:	68fb      	ldr	r3, [r7, #12]
 8002698:	f023 0370 	bic.w	r3, r3, #112	; 0x70
 800269c:	60fb      	str	r3, [r7, #12]
  /* Set the Input Trigger source and the slave mode*/
  tmpsmcr |= (InputTriggerSource | TIM_SLAVEMODE_EXTERNAL1);
 800269e:	683a      	ldr	r2, [r7, #0]
 80026a0:	68fb      	ldr	r3, [r7, #12]
 80026a2:	4313      	orrs	r3, r2
 80026a4:	f043 0307 	orr.w	r3, r3, #7
 80026a8:	60fb      	str	r3, [r7, #12]
  /* Write to TIMx SMCR */
  TIMx->SMCR = tmpsmcr;
 80026aa:	687b      	ldr	r3, [r7, #4]
 80026ac:	68fa      	ldr	r2, [r7, #12]
 80026ae:	609a      	str	r2, [r3, #8]
}
 80026b0:	bf00      	nop
 80026b2:	3714      	adds	r7, #20
 80026b4:	46bd      	mov	sp, r7
 80026b6:	bc80      	pop	{r7}
 80026b8:	4770      	bx	lr

080026ba <TIM_ETR_SetConfig>:
  *          This parameter must be a value between 0x00 and 0x0F
  * @retval None
  */
void TIM_ETR_SetConfig(TIM_TypeDef *TIMx, uint32_t TIM_ExtTRGPrescaler,
                       uint32_t TIM_ExtTRGPolarity, uint32_t ExtTRGFilter)
{
 80026ba:	b480      	push	{r7}
 80026bc:	b087      	sub	sp, #28
 80026be:	af00      	add	r7, sp, #0
 80026c0:	60f8      	str	r0, [r7, #12]
 80026c2:	60b9      	str	r1, [r7, #8]
 80026c4:	607a      	str	r2, [r7, #4]
 80026c6:	603b      	str	r3, [r7, #0]
  uint32_t tmpsmcr;

  tmpsmcr = TIMx->SMCR;
 80026c8:	68fb      	ldr	r3, [r7, #12]
 80026ca:	689b      	ldr	r3, [r3, #8]
 80026cc:	617b      	str	r3, [r7, #20]

  /* Reset the ETR Bits */
  tmpsmcr &= ~(TIM_SMCR_ETF | TIM_SMCR_ETPS | TIM_SMCR_ECE | TIM_SMCR_ETP);
 80026ce:	697b      	ldr	r3, [r7, #20]
 80026d0:	f423 437f 	bic.w	r3, r3, #65280	; 0xff00
 80026d4:	617b      	str	r3, [r7, #20]

  /* Set the Prescaler, the Filter value and the Polarity */
  tmpsmcr |= (uint32_t)(TIM_ExtTRGPrescaler | (TIM_ExtTRGPolarity | (ExtTRGFilter << 8U)));
 80026d6:	683b      	ldr	r3, [r7, #0]
 80026d8:	021a      	lsls	r2, r3, #8
 80026da:	687b      	ldr	r3, [r7, #4]
 80026dc:	431a      	orrs	r2, r3
 80026de:	68bb      	ldr	r3, [r7, #8]
 80026e0:	4313      	orrs	r3, r2
 80026e2:	697a      	ldr	r2, [r7, #20]
 80026e4:	4313      	orrs	r3, r2
 80026e6:	617b      	str	r3, [r7, #20]

  /* Write to TIMx SMCR */
  TIMx->SMCR = tmpsmcr;
 80026e8:	68fb      	ldr	r3, [r7, #12]
 80026ea:	697a      	ldr	r2, [r7, #20]
 80026ec:	609a      	str	r2, [r3, #8]
}
 80026ee:	bf00      	nop
 80026f0:	371c      	adds	r7, #28
 80026f2:	46bd      	mov	sp, r7
 80026f4:	bc80      	pop	{r7}
 80026f6:	4770      	bx	lr

080026f8 <HAL_TIMEx_MasterConfigSynchronization>:
  *         mode.
  * @retval HAL status
  */
HAL_StatusTypeDef HAL_TIMEx_MasterConfigSynchronization(TIM_HandleTypeDef *htim,
                                                        const TIM_MasterConfigTypeDef *sMasterConfig)
{
 80026f8:	b480      	push	{r7}
 80026fa:	b085      	sub	sp, #20
 80026fc:	af00      	add	r7, sp, #0
 80026fe:	6078      	str	r0, [r7, #4]
 8002700:	6039      	str	r1, [r7, #0]
  assert_param(IS_TIM_MASTER_INSTANCE(htim->Instance));
  assert_param(IS_TIM_TRGO_SOURCE(sMasterConfig->MasterOutputTrigger));
  assert_param(IS_TIM_MSM_STATE(sMasterConfig->MasterSlaveMode));

  /* Check input state */
  __HAL_LOCK(htim);
 8002702:	687b      	ldr	r3, [r7, #4]
 8002704:	f893 303c 	ldrb.w	r3, [r3, #60]	; 0x3c
 8002708:	2b01      	cmp	r3, #1
 800270a:	d101      	bne.n	8002710 <HAL_TIMEx_MasterConfigSynchronization+0x18>
 800270c:	2302      	movs	r3, #2
 800270e:	e041      	b.n	8002794 <HAL_TIMEx_MasterConfigSynchronization+0x9c>
 8002710:	687b      	ldr	r3, [r7, #4]
 8002712:	2201      	movs	r2, #1
 8002714:	f883 203c 	strb.w	r2, [r3, #60]	; 0x3c

  /* Change the handler state */
  htim->State = HAL_TIM_STATE_BUSY;
 8002718:	687b      	ldr	r3, [r7, #4]
 800271a:	2202      	movs	r2, #2
 800271c:	f883 203d 	strb.w	r2, [r3, #61]	; 0x3d

  /* Get the TIMx CR2 register value */
  tmpcr2 = htim->Instance->CR2;
 8002720:	687b      	ldr	r3, [r7, #4]
 8002722:	681b      	ldr	r3, [r3, #0]
 8002724:	685b      	ldr	r3, [r3, #4]
 8002726:	60fb      	str	r3, [r7, #12]

  /* Get the TIMx SMCR register value */
  tmpsmcr = htim->Instance->SMCR;
 8002728:	687b      	ldr	r3, [r7, #4]
 800272a:	681b      	ldr	r3, [r3, #0]
 800272c:	689b      	ldr	r3, [r3, #8]
 800272e:	60bb      	str	r3, [r7, #8]

  /* Reset the MMS Bits */
  tmpcr2 &= ~TIM_CR2_MMS;
 8002730:	68fb      	ldr	r3, [r7, #12]
 8002732:	f023 0370 	bic.w	r3, r3, #112	; 0x70
 8002736:	60fb      	str	r3, [r7, #12]
  /* Select the TRGO source */
  tmpcr2 |=  sMasterConfig->MasterOutputTrigger;
 8002738:	683b      	ldr	r3, [r7, #0]
 800273a:	681b      	ldr	r3, [r3, #0]
 800273c:	68fa      	ldr	r2, [r7, #12]
 800273e:	4313      	orrs	r3, r2
 8002740:	60fb      	str	r3, [r7, #12]

  /* Update TIMx CR2 */
  htim->Instance->CR2 = tmpcr2;
 8002742:	687b      	ldr	r3, [r7, #4]
 8002744:	681b      	ldr	r3, [r3, #0]
 8002746:	68fa      	ldr	r2, [r7, #12]
 8002748:	605a      	str	r2, [r3, #4]

  if (IS_TIM_SLAVE_INSTANCE(htim->Instance))
 800274a:	687b      	ldr	r3, [r7, #4]
 800274c:	681b      	ldr	r3, [r3, #0]
 800274e:	4a14      	ldr	r2, [pc, #80]	; (80027a0 <HAL_TIMEx_MasterConfigSynchronization+0xa8>)
 8002750:	4293      	cmp	r3, r2
 8002752:	d009      	beq.n	8002768 <HAL_TIMEx_MasterConfigSynchronization+0x70>
 8002754:	687b      	ldr	r3, [r7, #4]
 8002756:	681b      	ldr	r3, [r3, #0]
 8002758:	f1b3 4f80 	cmp.w	r3, #1073741824	; 0x40000000
 800275c:	d004      	beq.n	8002768 <HAL_TIMEx_MasterConfigSynchronization+0x70>
 800275e:	687b      	ldr	r3, [r7, #4]
 8002760:	681b      	ldr	r3, [r3, #0]
 8002762:	4a10      	ldr	r2, [pc, #64]	; (80027a4 <HAL_TIMEx_MasterConfigSynchronization+0xac>)
 8002764:	4293      	cmp	r3, r2
 8002766:	d10c      	bne.n	8002782 <HAL_TIMEx_MasterConfigSynchronization+0x8a>
  {
    /* Reset the MSM Bit */
    tmpsmcr &= ~TIM_SMCR_MSM;
 8002768:	68bb      	ldr	r3, [r7, #8]
 800276a:	f023 0380 	bic.w	r3, r3, #128	; 0x80
 800276e:	60bb      	str	r3, [r7, #8]
    /* Set master mode */
    tmpsmcr |= sMasterConfig->MasterSlaveMode;
 8002770:	683b      	ldr	r3, [r7, #0]
 8002772:	685b      	ldr	r3, [r3, #4]
 8002774:	68ba      	ldr	r2, [r7, #8]
 8002776:	4313      	orrs	r3, r2
 8002778:	60bb      	str	r3, [r7, #8]

    /* Update TIMx SMCR */
    htim->Instance->SMCR = tmpsmcr;
 800277a:	687b      	ldr	r3, [r7, #4]
 800277c:	681b      	ldr	r3, [r3, #0]
 800277e:	68ba      	ldr	r2, [r7, #8]
 8002780:	609a      	str	r2, [r3, #8]
  }

  /* Change the htim state */
  htim->State = HAL_TIM_STATE_READY;
 8002782:	687b      	ldr	r3, [r7, #4]
 8002784:	2201      	movs	r2, #1
 8002786:	f883 203d 	strb.w	r2, [r3, #61]	; 0x3d

  __HAL_UNLOCK(htim);
 800278a:	687b      	ldr	r3, [r7, #4]
 800278c:	2200      	movs	r2, #0
 800278e:	f883 203c 	strb.w	r2, [r3, #60]	; 0x3c

  return HAL_OK;
 8002792:	2300      	movs	r3, #0
}
 8002794:	4618      	mov	r0, r3
 8002796:	3714      	adds	r7, #20
 8002798:	46bd      	mov	sp, r7
 800279a:	bc80      	pop	{r7}
 800279c:	4770      	bx	lr
 800279e:	bf00      	nop
 80027a0:	40012c00 	.word	0x40012c00
 80027a4:	40000400 	.word	0x40000400

080027a8 <HAL_TIMEx_CommutCallback>:
  * @brief  Commutation callback in non-blocking mode
  * @param  htim TIM handle
  * @retval None
  */
__weak void HAL_TIMEx_CommutCallback(TIM_HandleTypeDef *htim)
{
 80027a8:	b480      	push	{r7}
 80027aa:	b083      	sub	sp, #12
 80027ac:	af00      	add	r7, sp, #0
 80027ae:	6078      	str	r0, [r7, #4]
  UNUSED(htim);

  /* NOTE : This function should not be modified, when the callback is needed,
            the HAL_TIMEx_CommutCallback could be implemented in the user file
   */
}
 80027b0:	bf00      	nop
 80027b2:	370c      	adds	r7, #12
 80027b4:	46bd      	mov	sp, r7
 80027b6:	bc80      	pop	{r7}
 80027b8:	4770      	bx	lr

080027ba <HAL_TIMEx_BreakCallback>:
  * @brief  Break detection callback in non-blocking mode
  * @param  htim TIM handle
  * @retval None
  */
__weak void HAL_TIMEx_BreakCallback(TIM_HandleTypeDef *htim)
{
 80027ba:	b480      	push	{r7}
 80027bc:	b083      	sub	sp, #12
 80027be:	af00      	add	r7, sp, #0
 80027c0:	6078      	str	r0, [r7, #4]
  UNUSED(htim);

  /* NOTE : This function should not be modified, when the callback is needed,
            the HAL_TIMEx_BreakCallback could be implemented in the user file
   */
}
 80027c2:	bf00      	nop
 80027c4:	370c      	adds	r7, #12
 80027c6:	46bd      	mov	sp, r7
 80027c8:	bc80      	pop	{r7}
 80027ca:	4770      	bx	lr

080027cc <__errno>:
 80027cc:	4b01      	ldr	r3, [pc, #4]	; (80027d4 <__errno+0x8>)
 80027ce:	6818      	ldr	r0, [r3, #0]
 80027d0:	4770      	bx	lr
 80027d2:	bf00      	nop
 80027d4:	20000054 	.word	0x20000054

080027d8 <__libc_init_array>:
 80027d8:	b570      	push	{r4, r5, r6, lr}
 80027da:	2600      	movs	r6, #0
 80027dc:	4d0c      	ldr	r5, [pc, #48]	; (8002810 <__libc_init_array+0x38>)
 80027de:	4c0d      	ldr	r4, [pc, #52]	; (8002814 <__libc_init_array+0x3c>)
 80027e0:	1b64      	subs	r4, r4, r5
 80027e2:	10a4      	asrs	r4, r4, #2
 80027e4:	42a6      	cmp	r6, r4
 80027e6:	d109      	bne.n	80027fc <__libc_init_array+0x24>
 80027e8:	f000 fc18 	bl	800301c <_init>
 80027ec:	2600      	movs	r6, #0
 80027ee:	4d0a      	ldr	r5, [pc, #40]	; (8002818 <__libc_init_array+0x40>)
 80027f0:	4c0a      	ldr	r4, [pc, #40]	; (800281c <__libc_init_array+0x44>)
 80027f2:	1b64      	subs	r4, r4, r5
 80027f4:	10a4      	asrs	r4, r4, #2
 80027f6:	42a6      	cmp	r6, r4
 80027f8:	d105      	bne.n	8002806 <__libc_init_array+0x2e>
 80027fa:	bd70      	pop	{r4, r5, r6, pc}
 80027fc:	f855 3b04 	ldr.w	r3, [r5], #4
 8002800:	4798      	blx	r3
 8002802:	3601      	adds	r6, #1
 8002804:	e7ee      	b.n	80027e4 <__libc_init_array+0xc>
 8002806:	f855 3b04 	ldr.w	r3, [r5], #4
 800280a:	4798      	blx	r3
 800280c:	3601      	adds	r6, #1
 800280e:	e7f2      	b.n	80027f6 <__libc_init_array+0x1e>
 8002810:	0800305c 	.word	0x0800305c
 8002814:	0800305c 	.word	0x0800305c
 8002818:	0800305c 	.word	0x0800305c
 800281c:	08003064 	.word	0x08003064

08002820 <malloc>:
 8002820:	4b02      	ldr	r3, [pc, #8]	; (800282c <malloc+0xc>)
 8002822:	4601      	mov	r1, r0
 8002824:	6818      	ldr	r0, [r3, #0]
 8002826:	f000 b80b 	b.w	8002840 <_malloc_r>
 800282a:	bf00      	nop
 800282c:	20000054 	.word	0x20000054

08002830 <free>:
 8002830:	4b02      	ldr	r3, [pc, #8]	; (800283c <free+0xc>)
 8002832:	4601      	mov	r1, r0
 8002834:	6818      	ldr	r0, [r3, #0]
 8002836:	f000 baef 	b.w	8002e18 <_free_r>
 800283a:	bf00      	nop
 800283c:	20000054 	.word	0x20000054

08002840 <_malloc_r>:
 8002840:	f101 030b 	add.w	r3, r1, #11
 8002844:	2b16      	cmp	r3, #22
 8002846:	e92d 4ff7 	stmdb	sp!, {r0, r1, r2, r4, r5, r6, r7, r8, r9, sl, fp, lr}
 800284a:	4605      	mov	r5, r0
 800284c:	d906      	bls.n	800285c <_malloc_r+0x1c>
 800284e:	f033 0707 	bics.w	r7, r3, #7
 8002852:	d504      	bpl.n	800285e <_malloc_r+0x1e>
 8002854:	230c      	movs	r3, #12
 8002856:	602b      	str	r3, [r5, #0]
 8002858:	2400      	movs	r4, #0
 800285a:	e1ae      	b.n	8002bba <_malloc_r+0x37a>
 800285c:	2710      	movs	r7, #16
 800285e:	42b9      	cmp	r1, r7
 8002860:	d8f8      	bhi.n	8002854 <_malloc_r+0x14>
 8002862:	4628      	mov	r0, r5
 8002864:	f000 fa36 	bl	8002cd4 <__malloc_lock>
 8002868:	f5b7 7ffc 	cmp.w	r7, #504	; 0x1f8
 800286c:	4ec3      	ldr	r6, [pc, #780]	; (8002b7c <_malloc_r+0x33c>)
 800286e:	d238      	bcs.n	80028e2 <_malloc_r+0xa2>
 8002870:	f107 0208 	add.w	r2, r7, #8
 8002874:	4432      	add	r2, r6
 8002876:	6854      	ldr	r4, [r2, #4]
 8002878:	f1a2 0108 	sub.w	r1, r2, #8
 800287c:	428c      	cmp	r4, r1
 800287e:	ea4f 03d7 	mov.w	r3, r7, lsr #3
 8002882:	d102      	bne.n	800288a <_malloc_r+0x4a>
 8002884:	68d4      	ldr	r4, [r2, #12]
 8002886:	42a2      	cmp	r2, r4
 8002888:	d010      	beq.n	80028ac <_malloc_r+0x6c>
 800288a:	6863      	ldr	r3, [r4, #4]
 800288c:	e9d4 1202 	ldrd	r1, r2, [r4, #8]
 8002890:	f023 0303 	bic.w	r3, r3, #3
 8002894:	60ca      	str	r2, [r1, #12]
 8002896:	4423      	add	r3, r4
 8002898:	6091      	str	r1, [r2, #8]
 800289a:	685a      	ldr	r2, [r3, #4]
 800289c:	f042 0201 	orr.w	r2, r2, #1
 80028a0:	605a      	str	r2, [r3, #4]
 80028a2:	4628      	mov	r0, r5
 80028a4:	f000 fa1c 	bl	8002ce0 <__malloc_unlock>
 80028a8:	3408      	adds	r4, #8
 80028aa:	e186      	b.n	8002bba <_malloc_r+0x37a>
 80028ac:	3302      	adds	r3, #2
 80028ae:	4ab4      	ldr	r2, [pc, #720]	; (8002b80 <_malloc_r+0x340>)
 80028b0:	6934      	ldr	r4, [r6, #16]
 80028b2:	4611      	mov	r1, r2
 80028b4:	4294      	cmp	r4, r2
 80028b6:	d077      	beq.n	80029a8 <_malloc_r+0x168>
 80028b8:	6860      	ldr	r0, [r4, #4]
 80028ba:	f020 0c03 	bic.w	ip, r0, #3
 80028be:	ebac 0007 	sub.w	r0, ip, r7
 80028c2:	280f      	cmp	r0, #15
 80028c4:	dd48      	ble.n	8002958 <_malloc_r+0x118>
 80028c6:	19e1      	adds	r1, r4, r7
 80028c8:	f040 0301 	orr.w	r3, r0, #1
 80028cc:	f047 0701 	orr.w	r7, r7, #1
 80028d0:	6067      	str	r7, [r4, #4]
 80028d2:	e9c6 1104 	strd	r1, r1, [r6, #16]
 80028d6:	e9c1 2202 	strd	r2, r2, [r1, #8]
 80028da:	604b      	str	r3, [r1, #4]
 80028dc:	f844 000c 	str.w	r0, [r4, ip]
 80028e0:	e7df      	b.n	80028a2 <_malloc_r+0x62>
 80028e2:	0a7b      	lsrs	r3, r7, #9
 80028e4:	d02a      	beq.n	800293c <_malloc_r+0xfc>
 80028e6:	2b04      	cmp	r3, #4
 80028e8:	d812      	bhi.n	8002910 <_malloc_r+0xd0>
 80028ea:	09bb      	lsrs	r3, r7, #6
 80028ec:	3338      	adds	r3, #56	; 0x38
 80028ee:	1c5a      	adds	r2, r3, #1
 80028f0:	eb06 02c2 	add.w	r2, r6, r2, lsl #3
 80028f4:	6854      	ldr	r4, [r2, #4]
 80028f6:	f1a2 0c08 	sub.w	ip, r2, #8
 80028fa:	4564      	cmp	r4, ip
 80028fc:	d006      	beq.n	800290c <_malloc_r+0xcc>
 80028fe:	6862      	ldr	r2, [r4, #4]
 8002900:	f022 0203 	bic.w	r2, r2, #3
 8002904:	1bd0      	subs	r0, r2, r7
 8002906:	280f      	cmp	r0, #15
 8002908:	dd1c      	ble.n	8002944 <_malloc_r+0x104>
 800290a:	3b01      	subs	r3, #1
 800290c:	3301      	adds	r3, #1
 800290e:	e7ce      	b.n	80028ae <_malloc_r+0x6e>
 8002910:	2b14      	cmp	r3, #20
 8002912:	d801      	bhi.n	8002918 <_malloc_r+0xd8>
 8002914:	335b      	adds	r3, #91	; 0x5b
 8002916:	e7ea      	b.n	80028ee <_malloc_r+0xae>
 8002918:	2b54      	cmp	r3, #84	; 0x54
 800291a:	d802      	bhi.n	8002922 <_malloc_r+0xe2>
 800291c:	0b3b      	lsrs	r3, r7, #12
 800291e:	336e      	adds	r3, #110	; 0x6e
 8002920:	e7e5      	b.n	80028ee <_malloc_r+0xae>
 8002922:	f5b3 7faa 	cmp.w	r3, #340	; 0x154
 8002926:	d802      	bhi.n	800292e <_malloc_r+0xee>
 8002928:	0bfb      	lsrs	r3, r7, #15
 800292a:	3377      	adds	r3, #119	; 0x77
 800292c:	e7df      	b.n	80028ee <_malloc_r+0xae>
 800292e:	f240 5254 	movw	r2, #1364	; 0x554
 8002932:	4293      	cmp	r3, r2
 8002934:	d804      	bhi.n	8002940 <_malloc_r+0x100>
 8002936:	0cbb      	lsrs	r3, r7, #18
 8002938:	337c      	adds	r3, #124	; 0x7c
 800293a:	e7d8      	b.n	80028ee <_malloc_r+0xae>
 800293c:	233f      	movs	r3, #63	; 0x3f
 800293e:	e7d6      	b.n	80028ee <_malloc_r+0xae>
 8002940:	237e      	movs	r3, #126	; 0x7e
 8002942:	e7d4      	b.n	80028ee <_malloc_r+0xae>
 8002944:	2800      	cmp	r0, #0
 8002946:	68e1      	ldr	r1, [r4, #12]
 8002948:	db04      	blt.n	8002954 <_malloc_r+0x114>
 800294a:	68a3      	ldr	r3, [r4, #8]
 800294c:	60d9      	str	r1, [r3, #12]
 800294e:	608b      	str	r3, [r1, #8]
 8002950:	18a3      	adds	r3, r4, r2
 8002952:	e7a2      	b.n	800289a <_malloc_r+0x5a>
 8002954:	460c      	mov	r4, r1
 8002956:	e7d0      	b.n	80028fa <_malloc_r+0xba>
 8002958:	2800      	cmp	r0, #0
 800295a:	e9c6 2204 	strd	r2, r2, [r6, #16]
 800295e:	db07      	blt.n	8002970 <_malloc_r+0x130>
 8002960:	44a4      	add	ip, r4
 8002962:	f8dc 3004 	ldr.w	r3, [ip, #4]
 8002966:	f043 0301 	orr.w	r3, r3, #1
 800296a:	f8cc 3004 	str.w	r3, [ip, #4]
 800296e:	e798      	b.n	80028a2 <_malloc_r+0x62>
 8002970:	f5bc 7f00 	cmp.w	ip, #512	; 0x200
 8002974:	6870      	ldr	r0, [r6, #4]
 8002976:	f080 809e 	bcs.w	8002ab6 <_malloc_r+0x276>
 800297a:	ea4f 02dc 	mov.w	r2, ip, lsr #3
 800297e:	ea4f 1e5c 	mov.w	lr, ip, lsr #5
 8002982:	f04f 0c01 	mov.w	ip, #1
 8002986:	fa0c fc0e 	lsl.w	ip, ip, lr
 800298a:	ea4c 0000 	orr.w	r0, ip, r0
 800298e:	3201      	adds	r2, #1
 8002990:	f856 c032 	ldr.w	ip, [r6, r2, lsl #3]
 8002994:	6070      	str	r0, [r6, #4]
 8002996:	eb06 00c2 	add.w	r0, r6, r2, lsl #3
 800299a:	3808      	subs	r0, #8
 800299c:	e9c4 c002 	strd	ip, r0, [r4, #8]
 80029a0:	f846 4032 	str.w	r4, [r6, r2, lsl #3]
 80029a4:	f8cc 400c 	str.w	r4, [ip, #12]
 80029a8:	2001      	movs	r0, #1
 80029aa:	109a      	asrs	r2, r3, #2
 80029ac:	fa00 f202 	lsl.w	r2, r0, r2
 80029b0:	6870      	ldr	r0, [r6, #4]
 80029b2:	4290      	cmp	r0, r2
 80029b4:	d326      	bcc.n	8002a04 <_malloc_r+0x1c4>
 80029b6:	4210      	tst	r0, r2
 80029b8:	d106      	bne.n	80029c8 <_malloc_r+0x188>
 80029ba:	f023 0303 	bic.w	r3, r3, #3
 80029be:	0052      	lsls	r2, r2, #1
 80029c0:	4210      	tst	r0, r2
 80029c2:	f103 0304 	add.w	r3, r3, #4
 80029c6:	d0fa      	beq.n	80029be <_malloc_r+0x17e>
 80029c8:	eb06 08c3 	add.w	r8, r6, r3, lsl #3
 80029cc:	46c1      	mov	r9, r8
 80029ce:	469e      	mov	lr, r3
 80029d0:	f8d9 400c 	ldr.w	r4, [r9, #12]
 80029d4:	454c      	cmp	r4, r9
 80029d6:	f040 80b3 	bne.w	8002b40 <_malloc_r+0x300>
 80029da:	f10e 0e01 	add.w	lr, lr, #1
 80029de:	f01e 0f03 	tst.w	lr, #3
 80029e2:	f109 0908 	add.w	r9, r9, #8
 80029e6:	d1f3      	bne.n	80029d0 <_malloc_r+0x190>
 80029e8:	0798      	lsls	r0, r3, #30
 80029ea:	f040 80ec 	bne.w	8002bc6 <_malloc_r+0x386>
 80029ee:	6873      	ldr	r3, [r6, #4]
 80029f0:	ea23 0302 	bic.w	r3, r3, r2
 80029f4:	6073      	str	r3, [r6, #4]
 80029f6:	6870      	ldr	r0, [r6, #4]
 80029f8:	0052      	lsls	r2, r2, #1
 80029fa:	4290      	cmp	r0, r2
 80029fc:	d302      	bcc.n	8002a04 <_malloc_r+0x1c4>
 80029fe:	2a00      	cmp	r2, #0
 8002a00:	f040 80ed 	bne.w	8002bde <_malloc_r+0x39e>
 8002a04:	f8d6 b008 	ldr.w	fp, [r6, #8]
 8002a08:	f8db 1004 	ldr.w	r1, [fp, #4]
 8002a0c:	f021 0903 	bic.w	r9, r1, #3
 8002a10:	45b9      	cmp	r9, r7
 8002a12:	d304      	bcc.n	8002a1e <_malloc_r+0x1de>
 8002a14:	eba9 0207 	sub.w	r2, r9, r7
 8002a18:	2a0f      	cmp	r2, #15
 8002a1a:	f300 8148 	bgt.w	8002cae <_malloc_r+0x46e>
 8002a1e:	4a59      	ldr	r2, [pc, #356]	; (8002b84 <_malloc_r+0x344>)
 8002a20:	eb0b 0309 	add.w	r3, fp, r9
 8002a24:	6811      	ldr	r1, [r2, #0]
 8002a26:	2008      	movs	r0, #8
 8002a28:	3110      	adds	r1, #16
 8002a2a:	4439      	add	r1, r7
 8002a2c:	9301      	str	r3, [sp, #4]
 8002a2e:	9100      	str	r1, [sp, #0]
 8002a30:	f000 f96c 	bl	8002d0c <sysconf>
 8002a34:	e9dd 1300 	ldrd	r1, r3, [sp]
 8002a38:	4680      	mov	r8, r0
 8002a3a:	4a53      	ldr	r2, [pc, #332]	; (8002b88 <_malloc_r+0x348>)
 8002a3c:	6810      	ldr	r0, [r2, #0]
 8002a3e:	3001      	adds	r0, #1
 8002a40:	bf1f      	itttt	ne
 8002a42:	f101 31ff 	addne.w	r1, r1, #4294967295
 8002a46:	4441      	addne	r1, r8
 8002a48:	f1c8 0000 	rsbne	r0, r8, #0
 8002a4c:	4001      	andne	r1, r0
 8002a4e:	4628      	mov	r0, r5
 8002a50:	e9cd 1300 	strd	r1, r3, [sp]
 8002a54:	f000 f94a 	bl	8002cec <_sbrk_r>
 8002a58:	1c42      	adds	r2, r0, #1
 8002a5a:	4604      	mov	r4, r0
 8002a5c:	f000 80fb 	beq.w	8002c56 <_malloc_r+0x416>
 8002a60:	9b01      	ldr	r3, [sp, #4]
 8002a62:	9900      	ldr	r1, [sp, #0]
 8002a64:	4283      	cmp	r3, r0
 8002a66:	4a48      	ldr	r2, [pc, #288]	; (8002b88 <_malloc_r+0x348>)
 8002a68:	d902      	bls.n	8002a70 <_malloc_r+0x230>
 8002a6a:	45b3      	cmp	fp, r6
 8002a6c:	f040 80f3 	bne.w	8002c56 <_malloc_r+0x416>
 8002a70:	f8df a120 	ldr.w	sl, [pc, #288]	; 8002b94 <_malloc_r+0x354>
 8002a74:	42a3      	cmp	r3, r4
 8002a76:	f8da 0000 	ldr.w	r0, [sl]
 8002a7a:	f108 3cff 	add.w	ip, r8, #4294967295
 8002a7e:	eb00 0e01 	add.w	lr, r0, r1
 8002a82:	f8ca e000 	str.w	lr, [sl]
 8002a86:	f040 80ac 	bne.w	8002be2 <_malloc_r+0x3a2>
 8002a8a:	ea13 0f0c 	tst.w	r3, ip
 8002a8e:	f040 80a8 	bne.w	8002be2 <_malloc_r+0x3a2>
 8002a92:	68b3      	ldr	r3, [r6, #8]
 8002a94:	4449      	add	r1, r9
 8002a96:	f041 0101 	orr.w	r1, r1, #1
 8002a9a:	6059      	str	r1, [r3, #4]
 8002a9c:	4a3b      	ldr	r2, [pc, #236]	; (8002b8c <_malloc_r+0x34c>)
 8002a9e:	f8da 3000 	ldr.w	r3, [sl]
 8002aa2:	6811      	ldr	r1, [r2, #0]
 8002aa4:	428b      	cmp	r3, r1
 8002aa6:	bf88      	it	hi
 8002aa8:	6013      	strhi	r3, [r2, #0]
 8002aaa:	4a39      	ldr	r2, [pc, #228]	; (8002b90 <_malloc_r+0x350>)
 8002aac:	6811      	ldr	r1, [r2, #0]
 8002aae:	428b      	cmp	r3, r1
 8002ab0:	bf88      	it	hi
 8002ab2:	6013      	strhi	r3, [r2, #0]
 8002ab4:	e0cf      	b.n	8002c56 <_malloc_r+0x416>
 8002ab6:	f5bc 6f20 	cmp.w	ip, #2560	; 0xa00
 8002aba:	ea4f 225c 	mov.w	r2, ip, lsr #9
 8002abe:	d218      	bcs.n	8002af2 <_malloc_r+0x2b2>
 8002ac0:	ea4f 129c 	mov.w	r2, ip, lsr #6
 8002ac4:	3238      	adds	r2, #56	; 0x38
 8002ac6:	f102 0e01 	add.w	lr, r2, #1
 8002aca:	f856 e03e 	ldr.w	lr, [r6, lr, lsl #3]
 8002ace:	eb06 08c2 	add.w	r8, r6, r2, lsl #3
 8002ad2:	45f0      	cmp	r8, lr
 8002ad4:	d12b      	bne.n	8002b2e <_malloc_r+0x2ee>
 8002ad6:	f04f 0c01 	mov.w	ip, #1
 8002ada:	1092      	asrs	r2, r2, #2
 8002adc:	fa0c f202 	lsl.w	r2, ip, r2
 8002ae0:	4310      	orrs	r0, r2
 8002ae2:	6070      	str	r0, [r6, #4]
 8002ae4:	e9c4 e802 	strd	lr, r8, [r4, #8]
 8002ae8:	f8c8 4008 	str.w	r4, [r8, #8]
 8002aec:	f8ce 400c 	str.w	r4, [lr, #12]
 8002af0:	e75a      	b.n	80029a8 <_malloc_r+0x168>
 8002af2:	2a14      	cmp	r2, #20
 8002af4:	d801      	bhi.n	8002afa <_malloc_r+0x2ba>
 8002af6:	325b      	adds	r2, #91	; 0x5b
 8002af8:	e7e5      	b.n	8002ac6 <_malloc_r+0x286>
 8002afa:	2a54      	cmp	r2, #84	; 0x54
 8002afc:	d803      	bhi.n	8002b06 <_malloc_r+0x2c6>
 8002afe:	ea4f 321c 	mov.w	r2, ip, lsr #12
 8002b02:	326e      	adds	r2, #110	; 0x6e
 8002b04:	e7df      	b.n	8002ac6 <_malloc_r+0x286>
 8002b06:	f5b2 7faa 	cmp.w	r2, #340	; 0x154
 8002b0a:	d803      	bhi.n	8002b14 <_malloc_r+0x2d4>
 8002b0c:	ea4f 32dc 	mov.w	r2, ip, lsr #15
 8002b10:	3277      	adds	r2, #119	; 0x77
 8002b12:	e7d8      	b.n	8002ac6 <_malloc_r+0x286>
 8002b14:	f240 5e54 	movw	lr, #1364	; 0x554
 8002b18:	4572      	cmp	r2, lr
 8002b1a:	bf96      	itet	ls
 8002b1c:	ea4f 429c 	movls.w	r2, ip, lsr #18
 8002b20:	227e      	movhi	r2, #126	; 0x7e
 8002b22:	327c      	addls	r2, #124	; 0x7c
 8002b24:	e7cf      	b.n	8002ac6 <_malloc_r+0x286>
 8002b26:	f8de e008 	ldr.w	lr, [lr, #8]
 8002b2a:	45f0      	cmp	r8, lr
 8002b2c:	d005      	beq.n	8002b3a <_malloc_r+0x2fa>
 8002b2e:	f8de 2004 	ldr.w	r2, [lr, #4]
 8002b32:	f022 0203 	bic.w	r2, r2, #3
 8002b36:	4562      	cmp	r2, ip
 8002b38:	d8f5      	bhi.n	8002b26 <_malloc_r+0x2e6>
 8002b3a:	f8de 800c 	ldr.w	r8, [lr, #12]
 8002b3e:	e7d1      	b.n	8002ae4 <_malloc_r+0x2a4>
 8002b40:	6860      	ldr	r0, [r4, #4]
 8002b42:	f8d4 c00c 	ldr.w	ip, [r4, #12]
 8002b46:	f020 0003 	bic.w	r0, r0, #3
 8002b4a:	eba0 0a07 	sub.w	sl, r0, r7
 8002b4e:	f1ba 0f0f 	cmp.w	sl, #15
 8002b52:	dd21      	ble.n	8002b98 <_malloc_r+0x358>
 8002b54:	68a3      	ldr	r3, [r4, #8]
 8002b56:	19e2      	adds	r2, r4, r7
 8002b58:	f047 0701 	orr.w	r7, r7, #1
 8002b5c:	6067      	str	r7, [r4, #4]
 8002b5e:	f8c3 c00c 	str.w	ip, [r3, #12]
 8002b62:	f8cc 3008 	str.w	r3, [ip, #8]
 8002b66:	f04a 0301 	orr.w	r3, sl, #1
 8002b6a:	e9c6 2204 	strd	r2, r2, [r6, #16]
 8002b6e:	e9c2 1102 	strd	r1, r1, [r2, #8]
 8002b72:	6053      	str	r3, [r2, #4]
 8002b74:	f844 a000 	str.w	sl, [r4, r0]
 8002b78:	e693      	b.n	80028a2 <_malloc_r+0x62>
 8002b7a:	bf00      	nop
 8002b7c:	20000480 	.word	0x20000480
 8002b80:	20000488 	.word	0x20000488
 8002b84:	20000900 	.word	0x20000900
 8002b88:	20000888 	.word	0x20000888
 8002b8c:	200008f8 	.word	0x200008f8
 8002b90:	200008fc 	.word	0x200008fc
 8002b94:	200008d0 	.word	0x200008d0
 8002b98:	f1ba 0f00 	cmp.w	sl, #0
 8002b9c:	db11      	blt.n	8002bc2 <_malloc_r+0x382>
 8002b9e:	4420      	add	r0, r4
 8002ba0:	6843      	ldr	r3, [r0, #4]
 8002ba2:	f043 0301 	orr.w	r3, r3, #1
 8002ba6:	6043      	str	r3, [r0, #4]
 8002ba8:	f854 3f08 	ldr.w	r3, [r4, #8]!
 8002bac:	4628      	mov	r0, r5
 8002bae:	f8c3 c00c 	str.w	ip, [r3, #12]
 8002bb2:	f8cc 3008 	str.w	r3, [ip, #8]
 8002bb6:	f000 f893 	bl	8002ce0 <__malloc_unlock>
 8002bba:	4620      	mov	r0, r4
 8002bbc:	b003      	add	sp, #12
 8002bbe:	e8bd 8ff0 	ldmia.w	sp!, {r4, r5, r6, r7, r8, r9, sl, fp, pc}
 8002bc2:	4664      	mov	r4, ip
 8002bc4:	e706      	b.n	80029d4 <_malloc_r+0x194>
 8002bc6:	f858 0908 	ldr.w	r0, [r8], #-8
 8002bca:	3b01      	subs	r3, #1
 8002bcc:	4540      	cmp	r0, r8
 8002bce:	f43f af0b 	beq.w	80029e8 <_malloc_r+0x1a8>
 8002bd2:	e710      	b.n	80029f6 <_malloc_r+0x1b6>
 8002bd4:	3304      	adds	r3, #4
 8002bd6:	0052      	lsls	r2, r2, #1
 8002bd8:	4210      	tst	r0, r2
 8002bda:	d0fb      	beq.n	8002bd4 <_malloc_r+0x394>
 8002bdc:	e6f4      	b.n	80029c8 <_malloc_r+0x188>
 8002bde:	4673      	mov	r3, lr
 8002be0:	e7fa      	b.n	8002bd8 <_malloc_r+0x398>
 8002be2:	6810      	ldr	r0, [r2, #0]
 8002be4:	3001      	adds	r0, #1
 8002be6:	bf1b      	ittet	ne
 8002be8:	1ae3      	subne	r3, r4, r3
 8002bea:	4473      	addne	r3, lr
 8002bec:	6014      	streq	r4, [r2, #0]
 8002bee:	f8ca 3000 	strne.w	r3, [sl]
 8002bf2:	f014 0307 	ands.w	r3, r4, #7
 8002bf6:	bf0e      	itee	eq
 8002bf8:	4618      	moveq	r0, r3
 8002bfa:	f1c3 0008 	rsbne	r0, r3, #8
 8002bfe:	1824      	addne	r4, r4, r0
 8002c00:	1862      	adds	r2, r4, r1
 8002c02:	ea02 010c 	and.w	r1, r2, ip
 8002c06:	4480      	add	r8, r0
 8002c08:	eba8 0801 	sub.w	r8, r8, r1
 8002c0c:	ea08 080c 	and.w	r8, r8, ip
 8002c10:	4641      	mov	r1, r8
 8002c12:	4628      	mov	r0, r5
 8002c14:	9301      	str	r3, [sp, #4]
 8002c16:	9200      	str	r2, [sp, #0]
 8002c18:	f000 f868 	bl	8002cec <_sbrk_r>
 8002c1c:	1c43      	adds	r3, r0, #1
 8002c1e:	e9dd 2300 	ldrd	r2, r3, [sp]
 8002c22:	d105      	bne.n	8002c30 <_malloc_r+0x3f0>
 8002c24:	b32b      	cbz	r3, 8002c72 <_malloc_r+0x432>
 8002c26:	f04f 0800 	mov.w	r8, #0
 8002c2a:	f1a3 0008 	sub.w	r0, r3, #8
 8002c2e:	4410      	add	r0, r2
 8002c30:	f8da 2000 	ldr.w	r2, [sl]
 8002c34:	1b00      	subs	r0, r0, r4
 8002c36:	4440      	add	r0, r8
 8002c38:	4442      	add	r2, r8
 8002c3a:	f040 0001 	orr.w	r0, r0, #1
 8002c3e:	45b3      	cmp	fp, r6
 8002c40:	60b4      	str	r4, [r6, #8]
 8002c42:	f8ca 2000 	str.w	r2, [sl]
 8002c46:	6060      	str	r0, [r4, #4]
 8002c48:	f43f af28 	beq.w	8002a9c <_malloc_r+0x25c>
 8002c4c:	f1b9 0f0f 	cmp.w	r9, #15
 8002c50:	d812      	bhi.n	8002c78 <_malloc_r+0x438>
 8002c52:	2301      	movs	r3, #1
 8002c54:	6063      	str	r3, [r4, #4]
 8002c56:	68b3      	ldr	r3, [r6, #8]
 8002c58:	685b      	ldr	r3, [r3, #4]
 8002c5a:	f023 0303 	bic.w	r3, r3, #3
 8002c5e:	42bb      	cmp	r3, r7
 8002c60:	eba3 0207 	sub.w	r2, r3, r7
 8002c64:	d301      	bcc.n	8002c6a <_malloc_r+0x42a>
 8002c66:	2a0f      	cmp	r2, #15
 8002c68:	dc21      	bgt.n	8002cae <_malloc_r+0x46e>
 8002c6a:	4628      	mov	r0, r5
 8002c6c:	f000 f838 	bl	8002ce0 <__malloc_unlock>
 8002c70:	e5f2      	b.n	8002858 <_malloc_r+0x18>
 8002c72:	4610      	mov	r0, r2
 8002c74:	4698      	mov	r8, r3
 8002c76:	e7db      	b.n	8002c30 <_malloc_r+0x3f0>
 8002c78:	2205      	movs	r2, #5
 8002c7a:	f8db 3004 	ldr.w	r3, [fp, #4]
 8002c7e:	f1a9 090c 	sub.w	r9, r9, #12
 8002c82:	f029 0907 	bic.w	r9, r9, #7
 8002c86:	f003 0301 	and.w	r3, r3, #1
 8002c8a:	ea43 0309 	orr.w	r3, r3, r9
 8002c8e:	f8cb 3004 	str.w	r3, [fp, #4]
 8002c92:	f1b9 0f0f 	cmp.w	r9, #15
 8002c96:	eb0b 0309 	add.w	r3, fp, r9
 8002c9a:	e9c3 2201 	strd	r2, r2, [r3, #4]
 8002c9e:	f67f aefd 	bls.w	8002a9c <_malloc_r+0x25c>
 8002ca2:	4628      	mov	r0, r5
 8002ca4:	f10b 0108 	add.w	r1, fp, #8
 8002ca8:	f000 f8b6 	bl	8002e18 <_free_r>
 8002cac:	e6f6      	b.n	8002a9c <_malloc_r+0x25c>
 8002cae:	68b4      	ldr	r4, [r6, #8]
 8002cb0:	f047 0301 	orr.w	r3, r7, #1
 8002cb4:	f042 0201 	orr.w	r2, r2, #1
 8002cb8:	4427      	add	r7, r4
 8002cba:	6063      	str	r3, [r4, #4]
 8002cbc:	60b7      	str	r7, [r6, #8]
 8002cbe:	607a      	str	r2, [r7, #4]
 8002cc0:	e5ef      	b.n	80028a2 <_malloc_r+0x62>
 8002cc2:	bf00      	nop

08002cc4 <memset>:
 8002cc4:	4603      	mov	r3, r0
 8002cc6:	4402      	add	r2, r0
 8002cc8:	4293      	cmp	r3, r2
 8002cca:	d100      	bne.n	8002cce <memset+0xa>
 8002ccc:	4770      	bx	lr
 8002cce:	f803 1b01 	strb.w	r1, [r3], #1
 8002cd2:	e7f9      	b.n	8002cc8 <memset+0x4>

08002cd4 <__malloc_lock>:
 8002cd4:	4801      	ldr	r0, [pc, #4]	; (8002cdc <__malloc_lock+0x8>)
 8002cd6:	f000 b95f 	b.w	8002f98 <__retarget_lock_acquire_recursive>
 8002cda:	bf00      	nop
 8002cdc:	2000096c 	.word	0x2000096c

08002ce0 <__malloc_unlock>:
 8002ce0:	4801      	ldr	r0, [pc, #4]	; (8002ce8 <__malloc_unlock+0x8>)
 8002ce2:	f000 b95a 	b.w	8002f9a <__retarget_lock_release_recursive>
 8002ce6:	bf00      	nop
 8002ce8:	2000096c 	.word	0x2000096c

08002cec <_sbrk_r>:
 8002cec:	b538      	push	{r3, r4, r5, lr}
 8002cee:	2300      	movs	r3, #0
 8002cf0:	4d05      	ldr	r5, [pc, #20]	; (8002d08 <_sbrk_r+0x1c>)
 8002cf2:	4604      	mov	r4, r0
 8002cf4:	4608      	mov	r0, r1
 8002cf6:	602b      	str	r3, [r5, #0]
 8002cf8:	f7fe f96c 	bl	8000fd4 <_sbrk>
 8002cfc:	1c43      	adds	r3, r0, #1
 8002cfe:	d102      	bne.n	8002d06 <_sbrk_r+0x1a>
 8002d00:	682b      	ldr	r3, [r5, #0]
 8002d02:	b103      	cbz	r3, 8002d06 <_sbrk_r+0x1a>
 8002d04:	6023      	str	r3, [r4, #0]
 8002d06:	bd38      	pop	{r3, r4, r5, pc}
 8002d08:	20000974 	.word	0x20000974

08002d0c <sysconf>:
 8002d0c:	2808      	cmp	r0, #8
 8002d0e:	b508      	push	{r3, lr}
 8002d10:	d006      	beq.n	8002d20 <sysconf+0x14>
 8002d12:	f7ff fd5b 	bl	80027cc <__errno>
 8002d16:	2316      	movs	r3, #22
 8002d18:	6003      	str	r3, [r0, #0]
 8002d1a:	f04f 30ff 	mov.w	r0, #4294967295
 8002d1e:	bd08      	pop	{r3, pc}
 8002d20:	f44f 5080 	mov.w	r0, #4096	; 0x1000
 8002d24:	e7fb      	b.n	8002d1e <sysconf+0x12>
	...

08002d28 <register_fini>:
 8002d28:	4b02      	ldr	r3, [pc, #8]	; (8002d34 <register_fini+0xc>)
 8002d2a:	b113      	cbz	r3, 8002d32 <register_fini+0xa>
 8002d2c:	4802      	ldr	r0, [pc, #8]	; (8002d38 <register_fini+0x10>)
 8002d2e:	f000 b805 	b.w	8002d3c <atexit>
 8002d32:	4770      	bx	lr
 8002d34:	00000000 	.word	0x00000000
 8002d38:	08002d49 	.word	0x08002d49

08002d3c <atexit>:
 8002d3c:	2300      	movs	r3, #0
 8002d3e:	4601      	mov	r1, r0
 8002d40:	461a      	mov	r2, r3
 8002d42:	4618      	mov	r0, r3
 8002d44:	f000 b92a 	b.w	8002f9c <__register_exitproc>

08002d48 <__libc_fini_array>:
 8002d48:	b538      	push	{r3, r4, r5, lr}
 8002d4a:	4d07      	ldr	r5, [pc, #28]	; (8002d68 <__libc_fini_array+0x20>)
 8002d4c:	4c07      	ldr	r4, [pc, #28]	; (8002d6c <__libc_fini_array+0x24>)
 8002d4e:	1b64      	subs	r4, r4, r5
 8002d50:	10a4      	asrs	r4, r4, #2
 8002d52:	b91c      	cbnz	r4, 8002d5c <__libc_fini_array+0x14>
 8002d54:	e8bd 4038 	ldmia.w	sp!, {r3, r4, r5, lr}
 8002d58:	f000 b966 	b.w	8003028 <_fini>
 8002d5c:	3c01      	subs	r4, #1
 8002d5e:	f855 3024 	ldr.w	r3, [r5, r4, lsl #2]
 8002d62:	4798      	blx	r3
 8002d64:	e7f5      	b.n	8002d52 <__libc_fini_array+0xa>
 8002d66:	bf00      	nop
 8002d68:	08003064 	.word	0x08003064
 8002d6c:	08003068 	.word	0x08003068

08002d70 <_malloc_trim_r>:
 8002d70:	e92d 41f0 	stmdb	sp!, {r4, r5, r6, r7, r8, lr}
 8002d74:	4606      	mov	r6, r0
 8002d76:	2008      	movs	r0, #8
 8002d78:	460c      	mov	r4, r1
 8002d7a:	f7ff ffc7 	bl	8002d0c <sysconf>
 8002d7e:	4680      	mov	r8, r0
 8002d80:	4f22      	ldr	r7, [pc, #136]	; (8002e0c <_malloc_trim_r+0x9c>)
 8002d82:	4630      	mov	r0, r6
 8002d84:	f7ff ffa6 	bl	8002cd4 <__malloc_lock>
 8002d88:	68bb      	ldr	r3, [r7, #8]
 8002d8a:	685d      	ldr	r5, [r3, #4]
 8002d8c:	f025 0503 	bic.w	r5, r5, #3
 8002d90:	1b2c      	subs	r4, r5, r4
 8002d92:	3c11      	subs	r4, #17
 8002d94:	4444      	add	r4, r8
 8002d96:	fbb4 f4f8 	udiv	r4, r4, r8
 8002d9a:	3c01      	subs	r4, #1
 8002d9c:	fb08 f404 	mul.w	r4, r8, r4
 8002da0:	45a0      	cmp	r8, r4
 8002da2:	dd05      	ble.n	8002db0 <_malloc_trim_r+0x40>
 8002da4:	4630      	mov	r0, r6
 8002da6:	f7ff ff9b 	bl	8002ce0 <__malloc_unlock>
 8002daa:	2000      	movs	r0, #0
 8002dac:	e8bd 81f0 	ldmia.w	sp!, {r4, r5, r6, r7, r8, pc}
 8002db0:	2100      	movs	r1, #0
 8002db2:	4630      	mov	r0, r6
 8002db4:	f7ff ff9a 	bl	8002cec <_sbrk_r>
 8002db8:	68bb      	ldr	r3, [r7, #8]
 8002dba:	442b      	add	r3, r5
 8002dbc:	4298      	cmp	r0, r3
 8002dbe:	d1f1      	bne.n	8002da4 <_malloc_trim_r+0x34>
 8002dc0:	4630      	mov	r0, r6
 8002dc2:	4261      	negs	r1, r4
 8002dc4:	f7ff ff92 	bl	8002cec <_sbrk_r>
 8002dc8:	3001      	adds	r0, #1
 8002dca:	d110      	bne.n	8002dee <_malloc_trim_r+0x7e>
 8002dcc:	2100      	movs	r1, #0
 8002dce:	4630      	mov	r0, r6
 8002dd0:	f7ff ff8c 	bl	8002cec <_sbrk_r>
 8002dd4:	68ba      	ldr	r2, [r7, #8]
 8002dd6:	1a83      	subs	r3, r0, r2
 8002dd8:	2b0f      	cmp	r3, #15
 8002dda:	dde3      	ble.n	8002da4 <_malloc_trim_r+0x34>
 8002ddc:	490c      	ldr	r1, [pc, #48]	; (8002e10 <_malloc_trim_r+0xa0>)
 8002dde:	f043 0301 	orr.w	r3, r3, #1
 8002de2:	6809      	ldr	r1, [r1, #0]
 8002de4:	6053      	str	r3, [r2, #4]
 8002de6:	1a40      	subs	r0, r0, r1
 8002de8:	490a      	ldr	r1, [pc, #40]	; (8002e14 <_malloc_trim_r+0xa4>)
 8002dea:	6008      	str	r0, [r1, #0]
 8002dec:	e7da      	b.n	8002da4 <_malloc_trim_r+0x34>
 8002dee:	68bb      	ldr	r3, [r7, #8]
 8002df0:	4a08      	ldr	r2, [pc, #32]	; (8002e14 <_malloc_trim_r+0xa4>)
 8002df2:	1b2d      	subs	r5, r5, r4
 8002df4:	f045 0501 	orr.w	r5, r5, #1
 8002df8:	605d      	str	r5, [r3, #4]
 8002dfa:	6813      	ldr	r3, [r2, #0]
 8002dfc:	4630      	mov	r0, r6
 8002dfe:	1b1c      	subs	r4, r3, r4
 8002e00:	6014      	str	r4, [r2, #0]
 8002e02:	f7ff ff6d 	bl	8002ce0 <__malloc_unlock>
 8002e06:	2001      	movs	r0, #1
 8002e08:	e7d0      	b.n	8002dac <_malloc_trim_r+0x3c>
 8002e0a:	bf00      	nop
 8002e0c:	20000480 	.word	0x20000480
 8002e10:	20000888 	.word	0x20000888
 8002e14:	200008d0 	.word	0x200008d0

08002e18 <_free_r>:
 8002e18:	b5f8      	push	{r3, r4, r5, r6, r7, lr}
 8002e1a:	4605      	mov	r5, r0
 8002e1c:	460f      	mov	r7, r1
 8002e1e:	2900      	cmp	r1, #0
 8002e20:	f000 80b1 	beq.w	8002f86 <_free_r+0x16e>
 8002e24:	f7ff ff56 	bl	8002cd4 <__malloc_lock>
 8002e28:	f857 2c04 	ldr.w	r2, [r7, #-4]
 8002e2c:	4856      	ldr	r0, [pc, #344]	; (8002f88 <_free_r+0x170>)
 8002e2e:	f022 0401 	bic.w	r4, r2, #1
 8002e32:	f1a7 0308 	sub.w	r3, r7, #8
 8002e36:	eb03 0c04 	add.w	ip, r3, r4
 8002e3a:	6881      	ldr	r1, [r0, #8]
 8002e3c:	f8dc 6004 	ldr.w	r6, [ip, #4]
 8002e40:	4561      	cmp	r1, ip
 8002e42:	f026 0603 	bic.w	r6, r6, #3
 8002e46:	f002 0201 	and.w	r2, r2, #1
 8002e4a:	d11b      	bne.n	8002e84 <_free_r+0x6c>
 8002e4c:	4434      	add	r4, r6
 8002e4e:	b93a      	cbnz	r2, 8002e60 <_free_r+0x48>
 8002e50:	f857 2c08 	ldr.w	r2, [r7, #-8]
 8002e54:	1a9b      	subs	r3, r3, r2
 8002e56:	4414      	add	r4, r2
 8002e58:	e9d3 1202 	ldrd	r1, r2, [r3, #8]
 8002e5c:	60ca      	str	r2, [r1, #12]
 8002e5e:	6091      	str	r1, [r2, #8]
 8002e60:	f044 0201 	orr.w	r2, r4, #1
 8002e64:	605a      	str	r2, [r3, #4]
 8002e66:	6083      	str	r3, [r0, #8]
 8002e68:	4b48      	ldr	r3, [pc, #288]	; (8002f8c <_free_r+0x174>)
 8002e6a:	681b      	ldr	r3, [r3, #0]
 8002e6c:	42a3      	cmp	r3, r4
 8002e6e:	d804      	bhi.n	8002e7a <_free_r+0x62>
 8002e70:	4b47      	ldr	r3, [pc, #284]	; (8002f90 <_free_r+0x178>)
 8002e72:	4628      	mov	r0, r5
 8002e74:	6819      	ldr	r1, [r3, #0]
 8002e76:	f7ff ff7b 	bl	8002d70 <_malloc_trim_r>
 8002e7a:	4628      	mov	r0, r5
 8002e7c:	e8bd 40f8 	ldmia.w	sp!, {r3, r4, r5, r6, r7, lr}
 8002e80:	f7ff bf2e 	b.w	8002ce0 <__malloc_unlock>
 8002e84:	f8cc 6004 	str.w	r6, [ip, #4]
 8002e88:	2a00      	cmp	r2, #0
 8002e8a:	d138      	bne.n	8002efe <_free_r+0xe6>
 8002e8c:	f857 1c08 	ldr.w	r1, [r7, #-8]
 8002e90:	f100 0708 	add.w	r7, r0, #8
 8002e94:	1a5b      	subs	r3, r3, r1
 8002e96:	440c      	add	r4, r1
 8002e98:	6899      	ldr	r1, [r3, #8]
 8002e9a:	42b9      	cmp	r1, r7
 8002e9c:	d031      	beq.n	8002f02 <_free_r+0xea>
 8002e9e:	68df      	ldr	r7, [r3, #12]
 8002ea0:	60cf      	str	r7, [r1, #12]
 8002ea2:	60b9      	str	r1, [r7, #8]
 8002ea4:	eb0c 0106 	add.w	r1, ip, r6
 8002ea8:	6849      	ldr	r1, [r1, #4]
 8002eaa:	07c9      	lsls	r1, r1, #31
 8002eac:	d40b      	bmi.n	8002ec6 <_free_r+0xae>
 8002eae:	f8dc 1008 	ldr.w	r1, [ip, #8]
 8002eb2:	4434      	add	r4, r6
 8002eb4:	bb3a      	cbnz	r2, 8002f06 <_free_r+0xee>
 8002eb6:	4e37      	ldr	r6, [pc, #220]	; (8002f94 <_free_r+0x17c>)
 8002eb8:	42b1      	cmp	r1, r6
 8002eba:	d124      	bne.n	8002f06 <_free_r+0xee>
 8002ebc:	2201      	movs	r2, #1
 8002ebe:	e9c0 3304 	strd	r3, r3, [r0, #16]
 8002ec2:	e9c3 1102 	strd	r1, r1, [r3, #8]
 8002ec6:	f044 0101 	orr.w	r1, r4, #1
 8002eca:	6059      	str	r1, [r3, #4]
 8002ecc:	511c      	str	r4, [r3, r4]
 8002ece:	2a00      	cmp	r2, #0
 8002ed0:	d1d3      	bne.n	8002e7a <_free_r+0x62>
 8002ed2:	f5b4 7f00 	cmp.w	r4, #512	; 0x200
 8002ed6:	d21b      	bcs.n	8002f10 <_free_r+0xf8>
 8002ed8:	0961      	lsrs	r1, r4, #5
 8002eda:	08e2      	lsrs	r2, r4, #3
 8002edc:	2401      	movs	r4, #1
 8002ede:	408c      	lsls	r4, r1
 8002ee0:	6841      	ldr	r1, [r0, #4]
 8002ee2:	3201      	adds	r2, #1
 8002ee4:	430c      	orrs	r4, r1
 8002ee6:	6044      	str	r4, [r0, #4]
 8002ee8:	eb00 01c2 	add.w	r1, r0, r2, lsl #3
 8002eec:	f850 4032 	ldr.w	r4, [r0, r2, lsl #3]
 8002ef0:	3908      	subs	r1, #8
 8002ef2:	e9c3 4102 	strd	r4, r1, [r3, #8]
 8002ef6:	f840 3032 	str.w	r3, [r0, r2, lsl #3]
 8002efa:	60e3      	str	r3, [r4, #12]
 8002efc:	e7bd      	b.n	8002e7a <_free_r+0x62>
 8002efe:	2200      	movs	r2, #0
 8002f00:	e7d0      	b.n	8002ea4 <_free_r+0x8c>
 8002f02:	2201      	movs	r2, #1
 8002f04:	e7ce      	b.n	8002ea4 <_free_r+0x8c>
 8002f06:	f8dc 600c 	ldr.w	r6, [ip, #12]
 8002f0a:	60ce      	str	r6, [r1, #12]
 8002f0c:	60b1      	str	r1, [r6, #8]
 8002f0e:	e7da      	b.n	8002ec6 <_free_r+0xae>
 8002f10:	f5b4 6f20 	cmp.w	r4, #2560	; 0xa00
 8002f14:	ea4f 2254 	mov.w	r2, r4, lsr #9
 8002f18:	d214      	bcs.n	8002f44 <_free_r+0x12c>
 8002f1a:	09a2      	lsrs	r2, r4, #6
 8002f1c:	3238      	adds	r2, #56	; 0x38
 8002f1e:	1c51      	adds	r1, r2, #1
 8002f20:	f850 1031 	ldr.w	r1, [r0, r1, lsl #3]
 8002f24:	eb00 06c2 	add.w	r6, r0, r2, lsl #3
 8002f28:	428e      	cmp	r6, r1
 8002f2a:	d125      	bne.n	8002f78 <_free_r+0x160>
 8002f2c:	2401      	movs	r4, #1
 8002f2e:	1092      	asrs	r2, r2, #2
 8002f30:	fa04 f202 	lsl.w	r2, r4, r2
 8002f34:	6844      	ldr	r4, [r0, #4]
 8002f36:	4322      	orrs	r2, r4
 8002f38:	6042      	str	r2, [r0, #4]
 8002f3a:	e9c3 1602 	strd	r1, r6, [r3, #8]
 8002f3e:	60b3      	str	r3, [r6, #8]
 8002f40:	60cb      	str	r3, [r1, #12]
 8002f42:	e79a      	b.n	8002e7a <_free_r+0x62>
 8002f44:	2a14      	cmp	r2, #20
 8002f46:	d801      	bhi.n	8002f4c <_free_r+0x134>
 8002f48:	325b      	adds	r2, #91	; 0x5b
 8002f4a:	e7e8      	b.n	8002f1e <_free_r+0x106>
 8002f4c:	2a54      	cmp	r2, #84	; 0x54
 8002f4e:	d802      	bhi.n	8002f56 <_free_r+0x13e>
 8002f50:	0b22      	lsrs	r2, r4, #12
 8002f52:	326e      	adds	r2, #110	; 0x6e
 8002f54:	e7e3      	b.n	8002f1e <_free_r+0x106>
 8002f56:	f5b2 7faa 	cmp.w	r2, #340	; 0x154
 8002f5a:	d802      	bhi.n	8002f62 <_free_r+0x14a>
 8002f5c:	0be2      	lsrs	r2, r4, #15
 8002f5e:	3277      	adds	r2, #119	; 0x77
 8002f60:	e7dd      	b.n	8002f1e <_free_r+0x106>
 8002f62:	f240 5154 	movw	r1, #1364	; 0x554
 8002f66:	428a      	cmp	r2, r1
 8002f68:	bf96      	itet	ls
 8002f6a:	0ca2      	lsrls	r2, r4, #18
 8002f6c:	227e      	movhi	r2, #126	; 0x7e
 8002f6e:	327c      	addls	r2, #124	; 0x7c
 8002f70:	e7d5      	b.n	8002f1e <_free_r+0x106>
 8002f72:	6889      	ldr	r1, [r1, #8]
 8002f74:	428e      	cmp	r6, r1
 8002f76:	d004      	beq.n	8002f82 <_free_r+0x16a>
 8002f78:	684a      	ldr	r2, [r1, #4]
 8002f7a:	f022 0203 	bic.w	r2, r2, #3
 8002f7e:	42a2      	cmp	r2, r4
 8002f80:	d8f7      	bhi.n	8002f72 <_free_r+0x15a>
 8002f82:	68ce      	ldr	r6, [r1, #12]
 8002f84:	e7d9      	b.n	8002f3a <_free_r+0x122>
 8002f86:	bdf8      	pop	{r3, r4, r5, r6, r7, pc}
 8002f88:	20000480 	.word	0x20000480
 8002f8c:	2000088c 	.word	0x2000088c
 8002f90:	20000900 	.word	0x20000900
 8002f94:	20000488 	.word	0x20000488

08002f98 <__retarget_lock_acquire_recursive>:
 8002f98:	4770      	bx	lr

08002f9a <__retarget_lock_release_recursive>:
 8002f9a:	4770      	bx	lr

08002f9c <__register_exitproc>:
 8002f9c:	e92d 43f8 	stmdb	sp!, {r3, r4, r5, r6, r7, r8, r9, lr}
 8002fa0:	4d1c      	ldr	r5, [pc, #112]	; (8003014 <__register_exitproc+0x78>)
 8002fa2:	4606      	mov	r6, r0
 8002fa4:	6828      	ldr	r0, [r5, #0]
 8002fa6:	4698      	mov	r8, r3
 8002fa8:	460f      	mov	r7, r1
 8002faa:	4691      	mov	r9, r2
 8002fac:	f7ff fff4 	bl	8002f98 <__retarget_lock_acquire_recursive>
 8002fb0:	4b19      	ldr	r3, [pc, #100]	; (8003018 <__register_exitproc+0x7c>)
 8002fb2:	4628      	mov	r0, r5
 8002fb4:	681b      	ldr	r3, [r3, #0]
 8002fb6:	f8d3 4148 	ldr.w	r4, [r3, #328]	; 0x148
 8002fba:	b91c      	cbnz	r4, 8002fc4 <__register_exitproc+0x28>
 8002fbc:	f503 74a6 	add.w	r4, r3, #332	; 0x14c
 8002fc0:	f8c3 4148 	str.w	r4, [r3, #328]	; 0x148
 8002fc4:	6865      	ldr	r5, [r4, #4]
 8002fc6:	6800      	ldr	r0, [r0, #0]
 8002fc8:	2d1f      	cmp	r5, #31
 8002fca:	dd05      	ble.n	8002fd8 <__register_exitproc+0x3c>
 8002fcc:	f7ff ffe5 	bl	8002f9a <__retarget_lock_release_recursive>
 8002fd0:	f04f 30ff 	mov.w	r0, #4294967295
 8002fd4:	e8bd 83f8 	ldmia.w	sp!, {r3, r4, r5, r6, r7, r8, r9, pc}
 8002fd8:	b19e      	cbz	r6, 8003002 <__register_exitproc+0x66>
 8002fda:	2201      	movs	r2, #1
 8002fdc:	eb04 0185 	add.w	r1, r4, r5, lsl #2
 8002fe0:	f8c1 9088 	str.w	r9, [r1, #136]	; 0x88
 8002fe4:	f8d4 3188 	ldr.w	r3, [r4, #392]	; 0x188
 8002fe8:	40aa      	lsls	r2, r5
 8002fea:	4313      	orrs	r3, r2
 8002fec:	2e02      	cmp	r6, #2
 8002fee:	f8c4 3188 	str.w	r3, [r4, #392]	; 0x188
 8002ff2:	f8c1 8108 	str.w	r8, [r1, #264]	; 0x108
 8002ff6:	bf02      	ittt	eq
 8002ff8:	f8d4 318c 	ldreq.w	r3, [r4, #396]	; 0x18c
 8002ffc:	431a      	orreq	r2, r3
 8002ffe:	f8c4 218c 	streq.w	r2, [r4, #396]	; 0x18c
 8003002:	1c6b      	adds	r3, r5, #1
 8003004:	3502      	adds	r5, #2
 8003006:	6063      	str	r3, [r4, #4]
 8003008:	f844 7025 	str.w	r7, [r4, r5, lsl #2]
 800300c:	f7ff ffc5 	bl	8002f9a <__retarget_lock_release_recursive>
 8003010:	2000      	movs	r0, #0
 8003012:	e7df      	b.n	8002fd4 <__register_exitproc+0x38>
 8003014:	20000890 	.word	0x20000890
 8003018:	08003058 	.word	0x08003058

0800301c <_init>:
 800301c:	b5f8      	push	{r3, r4, r5, r6, r7, lr}
 800301e:	bf00      	nop
 8003020:	bcf8      	pop	{r3, r4, r5, r6, r7}
 8003022:	bc08      	pop	{r3}
 8003024:	469e      	mov	lr, r3
 8003026:	4770      	bx	lr

08003028 <_fini>:
 8003028:	b5f8      	push	{r3, r4, r5, r6, r7, lr}
 800302a:	bf00      	nop
 800302c:	bcf8      	pop	{r3, r4, r5, r6, r7}
 800302e:	bc08      	pop	{r3}
 8003030:	469e      	mov	lr, r3
 8003032:	4770      	bx	lr
